; ModuleID = 'llvm-link'
source_filename = "llvm-link"
target datalayout = "e-m:e-p270:32:32-p271:32:32-p272:64:64-i64:64-f80:128-n8:16:32:64-S128"
target triple = "assigner-unknown-unknown"

%"alloc::string::String" = type { %"alloc::vec::Vec<u8>" }
%"alloc::vec::Vec<u8>" = type { { i64, ptr }, i64 }
%"core::fmt::Error" = type {}
%"core::result::Result<substreams_ethereum_core::pb::generated::sf::ethereum::r#type::v2::Block, prost::error::DecodeError>" = type { [49 x i64], i64, [20 x i64] }
%"[closure@<substreams_ethereum_core::pb::generated::sf::ethereum::r#type::v2::Block as prost::message::Message>::decode<&[u8]>::{closure#0}]" = type { %"substreams_ethereum_core::pb::generated::sf::ethereum::r#type::v2::Block" }
%"substreams_ethereum_core::pb::generated::sf::ethereum::r#type::v2::Block" = type { %"core::option::Option<substreams_ethereum_core::pb::generated::sf::ethereum::r#type::v2::BlockHeader>", i64, i64, %"alloc::vec::Vec<u8>", %"alloc::vec::Vec<u8>", %"alloc::vec::Vec<u8>", %"alloc::vec::Vec<u8>", %"alloc::vec::Vec<u8>", i32, [1 x i32] }
%"core::option::Option<substreams_ethereum_core::pb::generated::sf::ethereum::r#type::v2::BlockHeader>" = type { [49 x i64], i64, [2 x i64] }
%"prost::error::Inner" = type { %"alloc::borrow::Cow<'_, str>", %"alloc::vec::Vec<u8>" }
%"alloc::borrow::Cow<'_, str>" = type { i64, [3 x i64] }
%"alloc::borrow::Cow<'_, str>::Owned" = type { [1 x i64], %"alloc::string::String" }
%"substreams_ethereum_core::pb::generated::sf::ethereum::r#type::v2::BlockHeader" = type { %"core::option::Option<substreams_ethereum_core::pb::generated::sf::ethereum::r#type::v2::BigInt>", %"core::option::Option<substreams_ethereum_core::pb::generated::sf::ethereum::r#type::v2::BigInt>", i64, i64, i64, i64, %"core::option::Option<substreams_ethereum_core::pb::generated::sf::ethereum::r#type::v2::BigInt>", %"core::option::Option<substreams_ethereum_core::pb::generated::sf::ethereum::r#type::v2::BigInt>", %"alloc::vec::Vec<u8>", %"alloc::vec::Vec<u8>", %"alloc::vec::Vec<u8>", %"alloc::vec::Vec<u8>", %"alloc::vec::Vec<u8>", %"alloc::vec::Vec<u8>", %"alloc::vec::Vec<u8>", %"alloc::vec::Vec<u8>", %"alloc::vec::Vec<u8>", %"alloc::vec::Vec<u8>", %"alloc::vec::Vec<u8>", %"core::option::Option<prost_types::protobuf::Timestamp>" }
%"core::option::Option<substreams_ethereum_core::pb::generated::sf::ethereum::r#type::v2::BigInt>" = type { [1 x i64], ptr, [1 x i64] }
%"core::option::Option<prost_types::protobuf::Timestamp>" = type { i64, [2 x i64] }
%"core::result::Result<(u32, prost::encoding::WireType), prost::error::DecodeError>" = type { i32, [3 x i32] }
%"core::ops::control_flow::ControlFlow<core::result::Result<core::convert::Infallible, prost::error::DecodeError>, (u32, prost::encoding::WireType)>::Continue" = type { [1 x i32], { i32, i8 } }
%"core::ops::control_flow::ControlFlow<core::result::Result<core::convert::Infallible, prost::error::DecodeError>, (u32, prost::encoding::WireType)>::Break" = type { [1 x i64], ptr }
%"core::result::Result<prost::encoding::WireType, prost::error::DecodeError>" = type { i8, [15 x i8] }
%"core::fmt::Arguments<'_>" = type { { ptr, i64 }, { ptr, i64 }, { ptr, i64 } }
%"core::result::Result<u64, prost::error::DecodeError>" = type { i64, [1 x i64] }
%"core::ops::control_flow::ControlFlow<core::result::Result<core::convert::Infallible, prost::error::DecodeError>, u64>::Continue" = type { [1 x i64], i64 }
%"core::ops::control_flow::ControlFlow<core::result::Result<core::convert::Infallible, prost::error::DecodeError>, prost::encoding::WireType>::Continue" = type { [1 x i8], i8 }
%"substreams_ethereum_core::pb::generated::sf::ethereum::r#type::v2::TransactionTrace" = type { %"core::option::Option<substreams_ethereum_core::pb::generated::sf::ethereum::r#type::v2::TransactionReceipt>", i64, %"core::option::Option<substreams_ethereum_core::pb::generated::sf::ethereum::r#type::v2::BigInt>", i64, %"core::option::Option<substreams_ethereum_core::pb::generated::sf::ethereum::r#type::v2::BigInt>", i64, %"core::option::Option<substreams_ethereum_core::pb::generated::sf::ethereum::r#type::v2::BigInt>", %"core::option::Option<substreams_ethereum_core::pb::generated::sf::ethereum::r#type::v2::BigInt>", i64, i64, %"alloc::vec::Vec<u8>", %"alloc::vec::Vec<u8>", %"alloc::vec::Vec<u8>", %"alloc::vec::Vec<u8>", %"alloc::vec::Vec<u8>", %"alloc::vec::Vec<u8>", %"alloc::vec::Vec<u8>", %"alloc::vec::Vec<u8>", %"alloc::vec::Vec<u8>", %"alloc::vec::Vec<u8>", %"alloc::vec::Vec<u8>", i32, i32, i32, [1 x i32] }
%"core::option::Option<substreams_ethereum_core::pb::generated::sf::ethereum::r#type::v2::TransactionReceipt>" = type { [2 x i64], ptr, [7 x i64] }
%"substreams_ethereum_core::pb::generated::sf::ethereum::r#type::v2::BalanceChange" = type { %"core::option::Option<substreams_ethereum_core::pb::generated::sf::ethereum::r#type::v2::BigInt>", %"core::option::Option<substreams_ethereum_core::pb::generated::sf::ethereum::r#type::v2::BigInt>", i64, %"alloc::vec::Vec<u8>", i32, [1 x i32] }
%"substreams_ethereum_core::pb::generated::sf::ethereum::r#type::v2::CodeChange" = type { i64, %"alloc::vec::Vec<u8>", %"alloc::vec::Vec<u8>", %"alloc::vec::Vec<u8>", %"alloc::vec::Vec<u8>", %"alloc::vec::Vec<u8>" }
%"core::option::Option<(core::ptr::non_null::NonNull<u8>, core::alloc::layout::Layout)>" = type { [2 x i64], i64 }
%"core::result::Result<core::ptr::non_null::NonNull<[u8]>, alloc::collections::TryReserveError>::Err" = type { [1 x i64], { i64, i64 } }
%"core::result::Result<core::ptr::non_null::NonNull<[u8]>, alloc::collections::TryReserveError>::Ok" = type { [1 x i64], { ptr, i64 } }
%"substreams_ethereum_core::pb::generated::sf::ethereum::r#type::v2::TransactionReceipt" = type { i64, %"alloc::vec::Vec<u8>", %"alloc::vec::Vec<u8>", %"alloc::vec::Vec<u8>" }
%"substreams_ethereum_core::pb::generated::sf::ethereum::r#type::v2::AccessTuple" = type { %"alloc::vec::Vec<u8>", %"alloc::vec::Vec<u8>" }
%"substreams_ethereum_core::pb::generated::sf::ethereum::r#type::v2::Call" = type { %"std::collections::hash::map::HashMap<alloc::string::String, alloc::string::String>", %"core::option::Option<substreams_ethereum_core::pb::generated::sf::ethereum::r#type::v2::BigInt>", i64, i64, i64, i64, %"alloc::vec::Vec<u8>", %"alloc::vec::Vec<u8>", %"alloc::vec::Vec<u8>", %"alloc::vec::Vec<u8>", %"alloc::vec::Vec<u8>", %"alloc::vec::Vec<u8>", %"alloc::vec::Vec<u8>", %"alloc::vec::Vec<u8>", %"alloc::vec::Vec<u8>", %"alloc::vec::Vec<u8>", %"alloc::string::String", %"alloc::vec::Vec<u8>", i32, i32, i32, i32, i8, i8, i8, i8, i8, [3 x i8] }
%"std::collections::hash::map::HashMap<alloc::string::String, alloc::string::String>" = type { %"hashbrown::map::HashMap<alloc::string::String, alloc::string::String, std::collections::hash::map::RandomState>" }
%"hashbrown::map::HashMap<alloc::string::String, alloc::string::String, std::collections::hash::map::RandomState>" = type { %"hashbrown::raw::RawTable<(alloc::string::String, alloc::string::String)>", { i64, i64 } }
%"hashbrown::raw::RawTable<(alloc::string::String, alloc::string::String)>" = type { %"core::fmt::Error", %"hashbrown::raw::RawTableInner<alloc::alloc::Global>" }
%"hashbrown::raw::RawTableInner<alloc::alloc::Global>" = type { %"core::fmt::Error", i64, i64, i64, ptr }
%"substreams_ethereum_core::pb::generated::sf::ethereum::r#type::v2::StorageChange" = type { i64, %"alloc::vec::Vec<u8>", %"alloc::vec::Vec<u8>", %"alloc::vec::Vec<u8>", %"alloc::vec::Vec<u8>" }
%"substreams_ethereum_core::pb::generated::sf::ethereum::r#type::v2::NonceChange" = type { i64, i64, i64, %"alloc::vec::Vec<u8>" }
%"substreams_ethereum_core::pb::generated::sf::ethereum::r#type::v2::Log" = type { i64, %"alloc::vec::Vec<u8>", %"alloc::vec::Vec<u8>", %"alloc::vec::Vec<u8>", i32, i32 }
%"substreams_ethereum_core::pb::generated::sf::ethereum::r#type::v2::GasChange" = type { i64, i64, i64, i32, [1 x i32] }
%"substreams_ethereum_core::pb::generated::sf::ethereum::r#type::v2::AccountCreation" = type { i64, %"alloc::vec::Vec<u8>" }
%"hashbrown::scopeguard::ScopeGuard<hashbrown::raw::RawTableInner<alloc::alloc::Global>, [closure@hashbrown::raw::RawTableInner<alloc::alloc::Global>::prepare_resize::{closure#0}]>" = type { %"hashbrown::raw::RawTableInner<alloc::alloc::Global>", { i64, i64 } }
%"core::result::Result<hashbrown::scopeguard::ScopeGuard<hashbrown::raw::RawTableInner<alloc::alloc::Global>, [closure@hashbrown::raw::RawTableInner<alloc::alloc::Global>::prepare_resize::{closure#0}]>, hashbrown::TryReserveError>" = type { [3 x i64], ptr, [2 x i64] }
%"hashbrown::scopeguard::ScopeGuard<&mut hashbrown::raw::RawTableInner<alloc::alloc::Global>, [closure@hashbrown::raw::RawTableInner<alloc::alloc::Global>::rehash_in_place::{closure#0}]>" = type { { ptr, i64 }, ptr }
%"core::result::Result<hashbrown::raw::RawTableInner<alloc::alloc::Global>, hashbrown::TryReserveError>" = type { [3 x i64], ptr }
%"std::collections::hash::map::DefaultHasher" = type { %"core::hash::sip::SipHasher13" }
%"core::hash::sip::SipHasher13" = type { %"core::hash::sip::Hasher<core::hash::sip::Sip13Rounds>" }
%"core::hash::sip::Hasher<core::hash::sip::Sip13Rounds>" = type { %"core::fmt::Error", %"core::hash::sip::State", i64, i64, i64, i64, i64 }
%"core::hash::sip::State" = type { i64, i64, i64, i64 }
%"core::option::Option<(core::alloc::layout::Layout, usize)>" = type { [1 x i64], i64, [1 x i64] }
%"core::iter::adapters::step_by::StepBy<core::ops::range::Range<usize>>" = type { { i64, i64 }, i64, i8, [7 x i8] }
%"core::option::Option<prost_types::protobuf::Timestamp>::Some" = type { [1 x i64], { i64, i32 } }
%"pb::acme::block_meta::v1::BlockMeta" = type { i64, %"alloc::string::String", %"alloc::string::String", %"alloc::string::String" }
%"core::fmt::builders::DebugStruct<'_, '_>" = type { ptr, i8, i8, [6 x i8] }
%"core::fmt::Formatter<'_>" = type { { ptr, ptr }, { i64, i64 }, { i64, i64 }, i32, i32, i8, [7 x i8] }

@alloc194 = private unnamed_addr constant <{ [2 x i8] }> <{ [2 x i8] c"00" }>, align 1
@alloc196 = private unnamed_addr constant <{ [2 x i8] }> <{ [2 x i8] c"01" }>, align 1
@alloc197 = private unnamed_addr constant <{ [2 x i8] }> <{ [2 x i8] c"02" }>, align 1
@alloc198 = private unnamed_addr constant <{ [2 x i8] }> <{ [2 x i8] c"03" }>, align 1
@alloc199 = private unnamed_addr constant <{ [2 x i8] }> <{ [2 x i8] c"04" }>, align 1
@alloc200 = private unnamed_addr constant <{ [2 x i8] }> <{ [2 x i8] c"05" }>, align 1
@alloc201 = private unnamed_addr constant <{ [2 x i8] }> <{ [2 x i8] c"06" }>, align 1
@alloc202 = private unnamed_addr constant <{ [2 x i8] }> <{ [2 x i8] c"07" }>, align 1
@alloc203 = private unnamed_addr constant <{ [2 x i8] }> <{ [2 x i8] c"08" }>, align 1
@alloc204 = private unnamed_addr constant <{ [2 x i8] }> <{ [2 x i8] c"09" }>, align 1
@alloc205 = private unnamed_addr constant <{ [2 x i8] }> <{ [2 x i8] c"0a" }>, align 1
@alloc206 = private unnamed_addr constant <{ [2 x i8] }> <{ [2 x i8] c"0b" }>, align 1
@alloc207 = private unnamed_addr constant <{ [2 x i8] }> <{ [2 x i8] c"0c" }>, align 1
@alloc208 = private unnamed_addr constant <{ [2 x i8] }> <{ [2 x i8] c"0d" }>, align 1
@alloc209 = private unnamed_addr constant <{ [2 x i8] }> <{ [2 x i8] c"0e" }>, align 1
@alloc210 = private unnamed_addr constant <{ [2 x i8] }> <{ [2 x i8] c"0f" }>, align 1
@alloc211 = private unnamed_addr constant <{ [2 x i8] }> <{ [2 x i8] c"10" }>, align 1
@alloc212 = private unnamed_addr constant <{ [2 x i8] }> <{ [2 x i8] c"11" }>, align 1
@alloc213 = private unnamed_addr constant <{ [2 x i8] }> <{ [2 x i8] c"12" }>, align 1
@alloc214 = private unnamed_addr constant <{ [2 x i8] }> <{ [2 x i8] c"13" }>, align 1
@alloc215 = private unnamed_addr constant <{ [2 x i8] }> <{ [2 x i8] c"14" }>, align 1
@alloc216 = private unnamed_addr constant <{ [2 x i8] }> <{ [2 x i8] c"15" }>, align 1
@alloc217 = private unnamed_addr constant <{ [2 x i8] }> <{ [2 x i8] c"16" }>, align 1
@alloc218 = private unnamed_addr constant <{ [2 x i8] }> <{ [2 x i8] c"17" }>, align 1
@alloc219 = private unnamed_addr constant <{ [2 x i8] }> <{ [2 x i8] c"18" }>, align 1
@alloc220 = private unnamed_addr constant <{ [2 x i8] }> <{ [2 x i8] c"19" }>, align 1
@alloc221 = private unnamed_addr constant <{ [2 x i8] }> <{ [2 x i8] c"1a" }>, align 1
@alloc222 = private unnamed_addr constant <{ [2 x i8] }> <{ [2 x i8] c"1b" }>, align 1
@alloc223 = private unnamed_addr constant <{ [2 x i8] }> <{ [2 x i8] c"1c" }>, align 1
@alloc224 = private unnamed_addr constant <{ [2 x i8] }> <{ [2 x i8] c"1d" }>, align 1
@alloc225 = private unnamed_addr constant <{ [2 x i8] }> <{ [2 x i8] c"1e" }>, align 1
@alloc226 = private unnamed_addr constant <{ [2 x i8] }> <{ [2 x i8] c"1f" }>, align 1
@alloc227 = private unnamed_addr constant <{ [2 x i8] }> <{ [2 x i8] c"20" }>, align 1
@alloc228 = private unnamed_addr constant <{ [2 x i8] }> <{ [2 x i8] c"21" }>, align 1
@alloc229 = private unnamed_addr constant <{ [2 x i8] }> <{ [2 x i8] c"22" }>, align 1
@alloc230 = private unnamed_addr constant <{ [2 x i8] }> <{ [2 x i8] c"23" }>, align 1
@alloc231 = private unnamed_addr constant <{ [2 x i8] }> <{ [2 x i8] c"24" }>, align 1
@alloc232 = private unnamed_addr constant <{ [2 x i8] }> <{ [2 x i8] c"25" }>, align 1
@alloc233 = private unnamed_addr constant <{ [2 x i8] }> <{ [2 x i8] c"26" }>, align 1
@alloc234 = private unnamed_addr constant <{ [2 x i8] }> <{ [2 x i8] c"27" }>, align 1
@alloc235 = private unnamed_addr constant <{ [2 x i8] }> <{ [2 x i8] c"28" }>, align 1
@alloc236 = private unnamed_addr constant <{ [2 x i8] }> <{ [2 x i8] c"29" }>, align 1
@alloc237 = private unnamed_addr constant <{ [2 x i8] }> <{ [2 x i8] c"2a" }>, align 1
@alloc238 = private unnamed_addr constant <{ [2 x i8] }> <{ [2 x i8] c"2b" }>, align 1
@alloc239 = private unnamed_addr constant <{ [2 x i8] }> <{ [2 x i8] c"2c" }>, align 1
@alloc240 = private unnamed_addr constant <{ [2 x i8] }> <{ [2 x i8] c"2d" }>, align 1
@alloc241 = private unnamed_addr constant <{ [2 x i8] }> <{ [2 x i8] c"2e" }>, align 1
@alloc242 = private unnamed_addr constant <{ [2 x i8] }> <{ [2 x i8] c"2f" }>, align 1
@alloc243 = private unnamed_addr constant <{ [2 x i8] }> <{ [2 x i8] c"30" }>, align 1
@alloc244 = private unnamed_addr constant <{ [2 x i8] }> <{ [2 x i8] c"31" }>, align 1
@alloc245 = private unnamed_addr constant <{ [2 x i8] }> <{ [2 x i8] c"32" }>, align 1
@alloc246 = private unnamed_addr constant <{ [2 x i8] }> <{ [2 x i8] c"33" }>, align 1
@alloc247 = private unnamed_addr constant <{ [2 x i8] }> <{ [2 x i8] c"34" }>, align 1
@alloc248 = private unnamed_addr constant <{ [2 x i8] }> <{ [2 x i8] c"35" }>, align 1
@alloc249 = private unnamed_addr constant <{ [2 x i8] }> <{ [2 x i8] c"36" }>, align 1
@alloc250 = private unnamed_addr constant <{ [2 x i8] }> <{ [2 x i8] c"37" }>, align 1
@alloc251 = private unnamed_addr constant <{ [2 x i8] }> <{ [2 x i8] c"38" }>, align 1
@alloc252 = private unnamed_addr constant <{ [2 x i8] }> <{ [2 x i8] c"39" }>, align 1
@alloc253 = private unnamed_addr constant <{ [2 x i8] }> <{ [2 x i8] c"3a" }>, align 1
@alloc254 = private unnamed_addr constant <{ [2 x i8] }> <{ [2 x i8] c"3b" }>, align 1
@alloc255 = private unnamed_addr constant <{ [2 x i8] }> <{ [2 x i8] c"3c" }>, align 1
@alloc256 = private unnamed_addr constant <{ [2 x i8] }> <{ [2 x i8] c"3d" }>, align 1
@alloc257 = private unnamed_addr constant <{ [2 x i8] }> <{ [2 x i8] c"3e" }>, align 1
@alloc258 = private unnamed_addr constant <{ [2 x i8] }> <{ [2 x i8] c"3f" }>, align 1
@alloc259 = private unnamed_addr constant <{ [2 x i8] }> <{ [2 x i8] c"40" }>, align 1
@alloc260 = private unnamed_addr constant <{ [2 x i8] }> <{ [2 x i8] c"41" }>, align 1
@alloc261 = private unnamed_addr constant <{ [2 x i8] }> <{ [2 x i8] c"42" }>, align 1
@alloc262 = private unnamed_addr constant <{ [2 x i8] }> <{ [2 x i8] c"43" }>, align 1
@alloc263 = private unnamed_addr constant <{ [2 x i8] }> <{ [2 x i8] c"44" }>, align 1
@alloc264 = private unnamed_addr constant <{ [2 x i8] }> <{ [2 x i8] c"45" }>, align 1
@alloc265 = private unnamed_addr constant <{ [2 x i8] }> <{ [2 x i8] c"46" }>, align 1
@alloc266 = private unnamed_addr constant <{ [2 x i8] }> <{ [2 x i8] c"47" }>, align 1
@alloc267 = private unnamed_addr constant <{ [2 x i8] }> <{ [2 x i8] c"48" }>, align 1
@alloc268 = private unnamed_addr constant <{ [2 x i8] }> <{ [2 x i8] c"49" }>, align 1
@alloc269 = private unnamed_addr constant <{ [2 x i8] }> <{ [2 x i8] c"4a" }>, align 1
@alloc270 = private unnamed_addr constant <{ [2 x i8] }> <{ [2 x i8] c"4b" }>, align 1
@alloc271 = private unnamed_addr constant <{ [2 x i8] }> <{ [2 x i8] c"4c" }>, align 1
@alloc272 = private unnamed_addr constant <{ [2 x i8] }> <{ [2 x i8] c"4d" }>, align 1
@alloc273 = private unnamed_addr constant <{ [2 x i8] }> <{ [2 x i8] c"4e" }>, align 1
@alloc274 = private unnamed_addr constant <{ [2 x i8] }> <{ [2 x i8] c"4f" }>, align 1
@alloc275 = private unnamed_addr constant <{ [2 x i8] }> <{ [2 x i8] c"50" }>, align 1
@alloc276 = private unnamed_addr constant <{ [2 x i8] }> <{ [2 x i8] c"51" }>, align 1
@alloc277 = private unnamed_addr constant <{ [2 x i8] }> <{ [2 x i8] c"52" }>, align 1
@alloc278 = private unnamed_addr constant <{ [2 x i8] }> <{ [2 x i8] c"53" }>, align 1
@alloc279 = private unnamed_addr constant <{ [2 x i8] }> <{ [2 x i8] c"54" }>, align 1
@alloc280 = private unnamed_addr constant <{ [2 x i8] }> <{ [2 x i8] c"55" }>, align 1
@alloc281 = private unnamed_addr constant <{ [2 x i8] }> <{ [2 x i8] c"56" }>, align 1
@alloc282 = private unnamed_addr constant <{ [2 x i8] }> <{ [2 x i8] c"57" }>, align 1
@alloc283 = private unnamed_addr constant <{ [2 x i8] }> <{ [2 x i8] c"58" }>, align 1
@alloc284 = private unnamed_addr constant <{ [2 x i8] }> <{ [2 x i8] c"59" }>, align 1
@alloc285 = private unnamed_addr constant <{ [2 x i8] }> <{ [2 x i8] c"5a" }>, align 1
@alloc286 = private unnamed_addr constant <{ [2 x i8] }> <{ [2 x i8] c"5b" }>, align 1
@alloc287 = private unnamed_addr constant <{ [2 x i8] }> <{ [2 x i8] c"5c" }>, align 1
@alloc288 = private unnamed_addr constant <{ [2 x i8] }> <{ [2 x i8] c"5d" }>, align 1
@alloc289 = private unnamed_addr constant <{ [2 x i8] }> <{ [2 x i8] c"5e" }>, align 1
@alloc290 = private unnamed_addr constant <{ [2 x i8] }> <{ [2 x i8] c"5f" }>, align 1
@alloc291 = private unnamed_addr constant <{ [2 x i8] }> <{ [2 x i8] c"60" }>, align 1
@alloc292 = private unnamed_addr constant <{ [2 x i8] }> <{ [2 x i8] c"61" }>, align 1
@alloc293 = private unnamed_addr constant <{ [2 x i8] }> <{ [2 x i8] c"62" }>, align 1
@alloc294 = private unnamed_addr constant <{ [2 x i8] }> <{ [2 x i8] c"63" }>, align 1
@alloc295 = private unnamed_addr constant <{ [2 x i8] }> <{ [2 x i8] c"64" }>, align 1
@alloc296 = private unnamed_addr constant <{ [2 x i8] }> <{ [2 x i8] c"65" }>, align 1
@alloc297 = private unnamed_addr constant <{ [2 x i8] }> <{ [2 x i8] c"66" }>, align 1
@alloc298 = private unnamed_addr constant <{ [2 x i8] }> <{ [2 x i8] c"67" }>, align 1
@alloc299 = private unnamed_addr constant <{ [2 x i8] }> <{ [2 x i8] c"68" }>, align 1
@alloc300 = private unnamed_addr constant <{ [2 x i8] }> <{ [2 x i8] c"69" }>, align 1
@alloc301 = private unnamed_addr constant <{ [2 x i8] }> <{ [2 x i8] c"6a" }>, align 1
@alloc302 = private unnamed_addr constant <{ [2 x i8] }> <{ [2 x i8] c"6b" }>, align 1
@alloc303 = private unnamed_addr constant <{ [2 x i8] }> <{ [2 x i8] c"6c" }>, align 1
@alloc304 = private unnamed_addr constant <{ [2 x i8] }> <{ [2 x i8] c"6d" }>, align 1
@alloc305 = private unnamed_addr constant <{ [2 x i8] }> <{ [2 x i8] c"6e" }>, align 1
@alloc306 = private unnamed_addr constant <{ [2 x i8] }> <{ [2 x i8] c"6f" }>, align 1
@alloc307 = private unnamed_addr constant <{ [2 x i8] }> <{ [2 x i8] c"70" }>, align 1
@alloc308 = private unnamed_addr constant <{ [2 x i8] }> <{ [2 x i8] c"71" }>, align 1
@alloc309 = private unnamed_addr constant <{ [2 x i8] }> <{ [2 x i8] c"72" }>, align 1
@alloc310 = private unnamed_addr constant <{ [2 x i8] }> <{ [2 x i8] c"73" }>, align 1
@alloc311 = private unnamed_addr constant <{ [2 x i8] }> <{ [2 x i8] c"74" }>, align 1
@alloc312 = private unnamed_addr constant <{ [2 x i8] }> <{ [2 x i8] c"75" }>, align 1
@alloc313 = private unnamed_addr constant <{ [2 x i8] }> <{ [2 x i8] c"76" }>, align 1
@alloc314 = private unnamed_addr constant <{ [2 x i8] }> <{ [2 x i8] c"77" }>, align 1
@alloc315 = private unnamed_addr constant <{ [2 x i8] }> <{ [2 x i8] c"78" }>, align 1
@alloc316 = private unnamed_addr constant <{ [2 x i8] }> <{ [2 x i8] c"79" }>, align 1
@alloc317 = private unnamed_addr constant <{ [2 x i8] }> <{ [2 x i8] c"7a" }>, align 1
@alloc318 = private unnamed_addr constant <{ [2 x i8] }> <{ [2 x i8] c"7b" }>, align 1
@alloc319 = private unnamed_addr constant <{ [2 x i8] }> <{ [2 x i8] c"7c" }>, align 1
@alloc320 = private unnamed_addr constant <{ [2 x i8] }> <{ [2 x i8] c"7d" }>, align 1
@alloc321 = private unnamed_addr constant <{ [2 x i8] }> <{ [2 x i8] c"7e" }>, align 1
@alloc322 = private unnamed_addr constant <{ [2 x i8] }> <{ [2 x i8] c"7f" }>, align 1
@alloc323 = private unnamed_addr constant <{ [2 x i8] }> <{ [2 x i8] c"80" }>, align 1
@alloc324 = private unnamed_addr constant <{ [2 x i8] }> <{ [2 x i8] c"81" }>, align 1
@alloc325 = private unnamed_addr constant <{ [2 x i8] }> <{ [2 x i8] c"82" }>, align 1
@alloc326 = private unnamed_addr constant <{ [2 x i8] }> <{ [2 x i8] c"83" }>, align 1
@alloc327 = private unnamed_addr constant <{ [2 x i8] }> <{ [2 x i8] c"84" }>, align 1
@alloc328 = private unnamed_addr constant <{ [2 x i8] }> <{ [2 x i8] c"85" }>, align 1
@alloc329 = private unnamed_addr constant <{ [2 x i8] }> <{ [2 x i8] c"86" }>, align 1
@alloc330 = private unnamed_addr constant <{ [2 x i8] }> <{ [2 x i8] c"87" }>, align 1
@alloc331 = private unnamed_addr constant <{ [2 x i8] }> <{ [2 x i8] c"88" }>, align 1
@alloc332 = private unnamed_addr constant <{ [2 x i8] }> <{ [2 x i8] c"89" }>, align 1
@alloc333 = private unnamed_addr constant <{ [2 x i8] }> <{ [2 x i8] c"8a" }>, align 1
@alloc334 = private unnamed_addr constant <{ [2 x i8] }> <{ [2 x i8] c"8b" }>, align 1
@alloc335 = private unnamed_addr constant <{ [2 x i8] }> <{ [2 x i8] c"8c" }>, align 1
@alloc336 = private unnamed_addr constant <{ [2 x i8] }> <{ [2 x i8] c"8d" }>, align 1
@alloc337 = private unnamed_addr constant <{ [2 x i8] }> <{ [2 x i8] c"8e" }>, align 1
@alloc338 = private unnamed_addr constant <{ [2 x i8] }> <{ [2 x i8] c"8f" }>, align 1
@alloc339 = private unnamed_addr constant <{ [2 x i8] }> <{ [2 x i8] c"90" }>, align 1
@alloc340 = private unnamed_addr constant <{ [2 x i8] }> <{ [2 x i8] c"91" }>, align 1
@alloc341 = private unnamed_addr constant <{ [2 x i8] }> <{ [2 x i8] c"92" }>, align 1
@alloc342 = private unnamed_addr constant <{ [2 x i8] }> <{ [2 x i8] c"93" }>, align 1
@alloc343 = private unnamed_addr constant <{ [2 x i8] }> <{ [2 x i8] c"94" }>, align 1
@alloc344 = private unnamed_addr constant <{ [2 x i8] }> <{ [2 x i8] c"95" }>, align 1
@alloc345 = private unnamed_addr constant <{ [2 x i8] }> <{ [2 x i8] c"96" }>, align 1
@alloc346 = private unnamed_addr constant <{ [2 x i8] }> <{ [2 x i8] c"97" }>, align 1
@alloc347 = private unnamed_addr constant <{ [2 x i8] }> <{ [2 x i8] c"98" }>, align 1
@alloc348 = private unnamed_addr constant <{ [2 x i8] }> <{ [2 x i8] c"99" }>, align 1
@alloc349 = private unnamed_addr constant <{ [2 x i8] }> <{ [2 x i8] c"9a" }>, align 1
@alloc350 = private unnamed_addr constant <{ [2 x i8] }> <{ [2 x i8] c"9b" }>, align 1
@alloc351 = private unnamed_addr constant <{ [2 x i8] }> <{ [2 x i8] c"9c" }>, align 1
@alloc352 = private unnamed_addr constant <{ [2 x i8] }> <{ [2 x i8] c"9d" }>, align 1
@alloc353 = private unnamed_addr constant <{ [2 x i8] }> <{ [2 x i8] c"9e" }>, align 1
@alloc354 = private unnamed_addr constant <{ [2 x i8] }> <{ [2 x i8] c"9f" }>, align 1
@alloc355 = private unnamed_addr constant <{ [2 x i8] }> <{ [2 x i8] c"a0" }>, align 1
@alloc356 = private unnamed_addr constant <{ [2 x i8] }> <{ [2 x i8] c"a1" }>, align 1
@alloc357 = private unnamed_addr constant <{ [2 x i8] }> <{ [2 x i8] c"a2" }>, align 1
@alloc358 = private unnamed_addr constant <{ [2 x i8] }> <{ [2 x i8] c"a3" }>, align 1
@alloc359 = private unnamed_addr constant <{ [2 x i8] }> <{ [2 x i8] c"a4" }>, align 1
@alloc360 = private unnamed_addr constant <{ [2 x i8] }> <{ [2 x i8] c"a5" }>, align 1
@alloc361 = private unnamed_addr constant <{ [2 x i8] }> <{ [2 x i8] c"a6" }>, align 1
@alloc362 = private unnamed_addr constant <{ [2 x i8] }> <{ [2 x i8] c"a7" }>, align 1
@alloc363 = private unnamed_addr constant <{ [2 x i8] }> <{ [2 x i8] c"a8" }>, align 1
@alloc364 = private unnamed_addr constant <{ [2 x i8] }> <{ [2 x i8] c"a9" }>, align 1
@alloc365 = private unnamed_addr constant <{ [2 x i8] }> <{ [2 x i8] c"aa" }>, align 1
@alloc366 = private unnamed_addr constant <{ [2 x i8] }> <{ [2 x i8] c"ab" }>, align 1
@alloc367 = private unnamed_addr constant <{ [2 x i8] }> <{ [2 x i8] c"ac" }>, align 1
@alloc368 = private unnamed_addr constant <{ [2 x i8] }> <{ [2 x i8] c"ad" }>, align 1
@alloc369 = private unnamed_addr constant <{ [2 x i8] }> <{ [2 x i8] c"ae" }>, align 1
@alloc370 = private unnamed_addr constant <{ [2 x i8] }> <{ [2 x i8] c"af" }>, align 1
@alloc371 = private unnamed_addr constant <{ [2 x i8] }> <{ [2 x i8] c"b0" }>, align 1
@alloc372 = private unnamed_addr constant <{ [2 x i8] }> <{ [2 x i8] c"b1" }>, align 1
@alloc373 = private unnamed_addr constant <{ [2 x i8] }> <{ [2 x i8] c"b2" }>, align 1
@alloc374 = private unnamed_addr constant <{ [2 x i8] }> <{ [2 x i8] c"b3" }>, align 1
@alloc375 = private unnamed_addr constant <{ [2 x i8] }> <{ [2 x i8] c"b4" }>, align 1
@alloc376 = private unnamed_addr constant <{ [2 x i8] }> <{ [2 x i8] c"b5" }>, align 1
@alloc377 = private unnamed_addr constant <{ [2 x i8] }> <{ [2 x i8] c"b6" }>, align 1
@alloc378 = private unnamed_addr constant <{ [2 x i8] }> <{ [2 x i8] c"b7" }>, align 1
@alloc379 = private unnamed_addr constant <{ [2 x i8] }> <{ [2 x i8] c"b8" }>, align 1
@alloc380 = private unnamed_addr constant <{ [2 x i8] }> <{ [2 x i8] c"b9" }>, align 1
@alloc381 = private unnamed_addr constant <{ [2 x i8] }> <{ [2 x i8] c"ba" }>, align 1
@alloc382 = private unnamed_addr constant <{ [2 x i8] }> <{ [2 x i8] c"bb" }>, align 1
@alloc383 = private unnamed_addr constant <{ [2 x i8] }> <{ [2 x i8] c"bc" }>, align 1
@alloc384 = private unnamed_addr constant <{ [2 x i8] }> <{ [2 x i8] c"bd" }>, align 1
@alloc385 = private unnamed_addr constant <{ [2 x i8] }> <{ [2 x i8] c"be" }>, align 1
@alloc386 = private unnamed_addr constant <{ [2 x i8] }> <{ [2 x i8] c"bf" }>, align 1
@alloc387 = private unnamed_addr constant <{ [2 x i8] }> <{ [2 x i8] c"c0" }>, align 1
@alloc388 = private unnamed_addr constant <{ [2 x i8] }> <{ [2 x i8] c"c1" }>, align 1
@alloc389 = private unnamed_addr constant <{ [2 x i8] }> <{ [2 x i8] c"c2" }>, align 1
@alloc390 = private unnamed_addr constant <{ [2 x i8] }> <{ [2 x i8] c"c3" }>, align 1
@alloc391 = private unnamed_addr constant <{ [2 x i8] }> <{ [2 x i8] c"c4" }>, align 1
@alloc392 = private unnamed_addr constant <{ [2 x i8] }> <{ [2 x i8] c"c5" }>, align 1
@alloc393 = private unnamed_addr constant <{ [2 x i8] }> <{ [2 x i8] c"c6" }>, align 1
@alloc394 = private unnamed_addr constant <{ [2 x i8] }> <{ [2 x i8] c"c7" }>, align 1
@alloc395 = private unnamed_addr constant <{ [2 x i8] }> <{ [2 x i8] c"c8" }>, align 1
@alloc396 = private unnamed_addr constant <{ [2 x i8] }> <{ [2 x i8] c"c9" }>, align 1
@alloc397 = private unnamed_addr constant <{ [2 x i8] }> <{ [2 x i8] c"ca" }>, align 1
@alloc398 = private unnamed_addr constant <{ [2 x i8] }> <{ [2 x i8] c"cb" }>, align 1
@alloc399 = private unnamed_addr constant <{ [2 x i8] }> <{ [2 x i8] c"cc" }>, align 1
@alloc400 = private unnamed_addr constant <{ [2 x i8] }> <{ [2 x i8] c"cd" }>, align 1
@alloc401 = private unnamed_addr constant <{ [2 x i8] }> <{ [2 x i8] c"ce" }>, align 1
@alloc402 = private unnamed_addr constant <{ [2 x i8] }> <{ [2 x i8] c"cf" }>, align 1
@alloc403 = private unnamed_addr constant <{ [2 x i8] }> <{ [2 x i8] c"d0" }>, align 1
@alloc404 = private unnamed_addr constant <{ [2 x i8] }> <{ [2 x i8] c"d1" }>, align 1
@alloc405 = private unnamed_addr constant <{ [2 x i8] }> <{ [2 x i8] c"d2" }>, align 1
@alloc406 = private unnamed_addr constant <{ [2 x i8] }> <{ [2 x i8] c"d3" }>, align 1
@alloc407 = private unnamed_addr constant <{ [2 x i8] }> <{ [2 x i8] c"d4" }>, align 1
@alloc408 = private unnamed_addr constant <{ [2 x i8] }> <{ [2 x i8] c"d5" }>, align 1
@alloc409 = private unnamed_addr constant <{ [2 x i8] }> <{ [2 x i8] c"d6" }>, align 1
@alloc410 = private unnamed_addr constant <{ [2 x i8] }> <{ [2 x i8] c"d7" }>, align 1
@alloc411 = private unnamed_addr constant <{ [2 x i8] }> <{ [2 x i8] c"d8" }>, align 1
@alloc412 = private unnamed_addr constant <{ [2 x i8] }> <{ [2 x i8] c"d9" }>, align 1
@alloc413 = private unnamed_addr constant <{ [2 x i8] }> <{ [2 x i8] c"da" }>, align 1
@alloc414 = private unnamed_addr constant <{ [2 x i8] }> <{ [2 x i8] c"db" }>, align 1
@alloc415 = private unnamed_addr constant <{ [2 x i8] }> <{ [2 x i8] c"dc" }>, align 1
@alloc416 = private unnamed_addr constant <{ [2 x i8] }> <{ [2 x i8] c"dd" }>, align 1
@alloc417 = private unnamed_addr constant <{ [2 x i8] }> <{ [2 x i8] c"de" }>, align 1
@alloc418 = private unnamed_addr constant <{ [2 x i8] }> <{ [2 x i8] c"df" }>, align 1
@alloc419 = private unnamed_addr constant <{ [2 x i8] }> <{ [2 x i8] c"e0" }>, align 1
@alloc420 = private unnamed_addr constant <{ [2 x i8] }> <{ [2 x i8] c"e1" }>, align 1
@alloc421 = private unnamed_addr constant <{ [2 x i8] }> <{ [2 x i8] c"e2" }>, align 1
@alloc422 = private unnamed_addr constant <{ [2 x i8] }> <{ [2 x i8] c"e3" }>, align 1
@alloc423 = private unnamed_addr constant <{ [2 x i8] }> <{ [2 x i8] c"e4" }>, align 1
@alloc424 = private unnamed_addr constant <{ [2 x i8] }> <{ [2 x i8] c"e5" }>, align 1
@alloc425 = private unnamed_addr constant <{ [2 x i8] }> <{ [2 x i8] c"e6" }>, align 1
@alloc426 = private unnamed_addr constant <{ [2 x i8] }> <{ [2 x i8] c"e7" }>, align 1
@alloc427 = private unnamed_addr constant <{ [2 x i8] }> <{ [2 x i8] c"e8" }>, align 1
@alloc428 = private unnamed_addr constant <{ [2 x i8] }> <{ [2 x i8] c"e9" }>, align 1
@alloc429 = private unnamed_addr constant <{ [2 x i8] }> <{ [2 x i8] c"ea" }>, align 1
@alloc430 = private unnamed_addr constant <{ [2 x i8] }> <{ [2 x i8] c"eb" }>, align 1
@alloc431 = private unnamed_addr constant <{ [2 x i8] }> <{ [2 x i8] c"ec" }>, align 1
@alloc432 = private unnamed_addr constant <{ [2 x i8] }> <{ [2 x i8] c"ed" }>, align 1
@alloc433 = private unnamed_addr constant <{ [2 x i8] }> <{ [2 x i8] c"ee" }>, align 1
@alloc434 = private unnamed_addr constant <{ [2 x i8] }> <{ [2 x i8] c"ef" }>, align 1
@alloc435 = private unnamed_addr constant <{ [2 x i8] }> <{ [2 x i8] c"f0" }>, align 1
@alloc436 = private unnamed_addr constant <{ [2 x i8] }> <{ [2 x i8] c"f1" }>, align 1
@alloc437 = private unnamed_addr constant <{ [2 x i8] }> <{ [2 x i8] c"f2" }>, align 1
@alloc438 = private unnamed_addr constant <{ [2 x i8] }> <{ [2 x i8] c"f3" }>, align 1
@alloc439 = private unnamed_addr constant <{ [2 x i8] }> <{ [2 x i8] c"f4" }>, align 1
@alloc440 = private unnamed_addr constant <{ [2 x i8] }> <{ [2 x i8] c"f5" }>, align 1
@alloc441 = private unnamed_addr constant <{ [2 x i8] }> <{ [2 x i8] c"f6" }>, align 1
@alloc442 = private unnamed_addr constant <{ [2 x i8] }> <{ [2 x i8] c"f7" }>, align 1
@alloc443 = private unnamed_addr constant <{ [2 x i8] }> <{ [2 x i8] c"f8" }>, align 1
@alloc444 = private unnamed_addr constant <{ [2 x i8] }> <{ [2 x i8] c"f9" }>, align 1
@alloc445 = private unnamed_addr constant <{ [2 x i8] }> <{ [2 x i8] c"fa" }>, align 1
@alloc446 = private unnamed_addr constant <{ [2 x i8] }> <{ [2 x i8] c"fb" }>, align 1
@alloc447 = private unnamed_addr constant <{ [2 x i8] }> <{ [2 x i8] c"fc" }>, align 1
@alloc448 = private unnamed_addr constant <{ [2 x i8] }> <{ [2 x i8] c"fd" }>, align 1
@alloc449 = private unnamed_addr constant <{ [2 x i8] }> <{ [2 x i8] c"fe" }>, align 1
@alloc450 = private unnamed_addr constant <{ [2 x i8] }> <{ [2 x i8] c"ff" }>, align 1
@anon.1054e9c2a7c8780f9e0bef1bd85a4552.0 = private unnamed_addr constant <{ ptr, [8 x i8], ptr, [8 x i8], ptr, [8 x i8], ptr, [8 x i8], ptr, [8 x i8], ptr, [8 x i8], ptr, [8 x i8], ptr, [8 x i8], ptr, [8 x i8], ptr, [8 x i8], ptr, [8 x i8], ptr, [8 x i8], ptr, [8 x i8], ptr, [8 x i8], ptr, [8 x i8], ptr, [8 x i8], ptr, [8 x i8], ptr, [8 x i8], ptr, [8 x i8], ptr, [8 x i8], ptr, [8 x i8], ptr, [8 x i8], ptr, [8 x i8], ptr, [8 x i8], ptr, [8 x i8], ptr, [8 x i8], ptr, [8 x i8], ptr, [8 x i8], ptr, [8 x i8], ptr, [8 x i8], ptr, [8 x i8], ptr, [8 x i8], ptr, [8 x i8], ptr, [8 x i8], ptr, [8 x i8], ptr, [8 x i8], ptr, [8 x i8], ptr, [8 x i8], ptr, [8 x i8], ptr, [8 x i8], ptr, [8 x i8], ptr, [8 x i8], ptr, [8 x i8], ptr, [8 x i8], ptr, [8 x i8], ptr, [8 x i8], ptr, [8 x i8], ptr, [8 x i8], ptr, [8 x i8], ptr, [8 x i8], ptr, [8 x i8], ptr, [8 x i8], ptr, [8 x i8], ptr, [8 x i8], ptr, [8 x i8], ptr, [8 x i8], ptr, [8 x i8], ptr, [8 x i8], ptr, [8 x i8], ptr, [8 x i8], ptr, [8 x i8], ptr, [8 x i8], ptr, [8 x i8], ptr, [8 x i8], ptr, [8 x i8], ptr, [8 x i8], ptr, [8 x i8], ptr, [8 x i8], ptr, [8 x i8], ptr, [8 x i8], ptr, [8 x i8], ptr, [8 x i8], ptr, [8 x i8], ptr, [8 x i8], ptr, [8 x i8], ptr, [8 x i8], ptr, [8 x i8], ptr, [8 x i8], ptr, [8 x i8], ptr, [8 x i8], ptr, [8 x i8], ptr, [8 x i8], ptr, [8 x i8], ptr, [8 x i8], ptr, [8 x i8], ptr, [8 x i8], ptr, [8 x i8], ptr, [8 x i8], ptr, [8 x i8], ptr, [8 x i8], ptr, [8 x i8], ptr, [8 x i8], ptr, [8 x i8], ptr, [8 x i8], ptr, [8 x i8], ptr, [8 x i8], ptr, [8 x i8], ptr, [8 x i8], ptr, [8 x i8], ptr, [8 x i8], ptr, [8 x i8], ptr, [8 x i8], ptr, [8 x i8], ptr, [8 x i8], ptr, [8 x i8], ptr, [8 x i8], ptr, [8 x i8], ptr, [8 x i8], ptr, [8 x i8], ptr, [8 x i8], ptr, [8 x i8], ptr, [8 x i8], ptr, [8 x i8], ptr, [8 x i8], ptr, [8 x i8], ptr, [8 x i8], ptr, [8 x i8], ptr, [8 x i8], ptr, [8 x i8], ptr, [8 x i8], ptr, [8 x i8], ptr, [8 x i8], ptr, [8 x i8], ptr, [8 x i8], ptr, [8 x i8], ptr, [8 x i8], ptr, [8 x i8], ptr, [8 x i8], ptr, [8 x i8], ptr, [8 x i8], ptr, [8 x i8], ptr, [8 x i8], ptr, [8 x i8], ptr, [8 x i8], ptr, [8 x i8], ptr, [8 x i8], ptr, [8 x i8], ptr, [8 x i8], ptr, [8 x i8], ptr, [8 x i8], ptr, [8 x i8], ptr, [8 x i8], ptr, [8 x i8], ptr, [8 x i8], ptr, [8 x i8], ptr, [8 x i8], ptr, [8 x i8], ptr, [8 x i8], ptr, [8 x i8], ptr, [8 x i8], ptr, [8 x i8], ptr, [8 x i8], ptr, [8 x i8], ptr, [8 x i8], ptr, [8 x i8], ptr, [8 x i8], ptr, [8 x i8], ptr, [8 x i8], ptr, [8 x i8], ptr, [8 x i8], ptr, [8 x i8], ptr, [8 x i8], ptr, [8 x i8], ptr, [8 x i8], ptr, [8 x i8], ptr, [8 x i8], ptr, [8 x i8], ptr, [8 x i8], ptr, [8 x i8], ptr, [8 x i8], ptr, [8 x i8], ptr, [8 x i8], ptr, [8 x i8], ptr, [8 x i8], ptr, [8 x i8], ptr, [8 x i8], ptr, [8 x i8], ptr, [8 x i8], ptr, [8 x i8], ptr, [8 x i8], ptr, [8 x i8], ptr, [8 x i8], ptr, [8 x i8], ptr, [8 x i8], ptr, [8 x i8], ptr, [8 x i8], ptr, [8 x i8], ptr, [8 x i8], ptr, [8 x i8], ptr, [8 x i8], ptr, [8 x i8], ptr, [8 x i8], ptr, [8 x i8], ptr, [8 x i8], ptr, [8 x i8], ptr, [8 x i8], ptr, [8 x i8], ptr, [8 x i8], ptr, [8 x i8], ptr, [8 x i8], ptr, [8 x i8], ptr, [8 x i8], ptr, [8 x i8], ptr, [8 x i8], ptr, [8 x i8], ptr, [8 x i8], ptr, [8 x i8], ptr, [8 x i8], ptr, [8 x i8], ptr, [8 x i8], ptr, [8 x i8], ptr, [8 x i8], ptr, [8 x i8], ptr, [8 x i8], ptr, [8 x i8], ptr, [8 x i8], ptr, [8 x i8], ptr, [8 x i8], ptr, [8 x i8], ptr, [8 x i8], ptr, [8 x i8], ptr, [8 x i8], ptr, [8 x i8], ptr, [8 x i8], ptr, [8 x i8], ptr, [8 x i8], ptr, [8 x i8], ptr, [8 x i8], ptr, [8 x i8], ptr, [8 x i8], ptr, [8 x i8], ptr, [8 x i8], ptr, [8 x i8], ptr, [8 x i8], ptr, [8 x i8], ptr, [8 x i8], ptr, [8 x i8], ptr, [8 x i8], ptr, [8 x i8], ptr, [8 x i8], ptr, [8 x i8], ptr, [8 x i8], ptr, [8 x i8], ptr, [8 x i8], ptr, [8 x i8], ptr, [8 x i8], ptr, [8 x i8], ptr, [8 x i8], ptr, [8 x i8], ptr, [8 x i8], ptr, [8 x i8], ptr, [8 x i8], ptr, [8 x i8], ptr, [8 x i8], ptr, [8 x i8], ptr, [8 x i8] }> <{ ptr @alloc194, [8 x i8] c"\02\00\00\00\00\00\00\00", ptr @alloc196, [8 x i8] c"\02\00\00\00\00\00\00\00", ptr @alloc197, [8 x i8] c"\02\00\00\00\00\00\00\00", ptr @alloc198, [8 x i8] c"\02\00\00\00\00\00\00\00", ptr @alloc199, [8 x i8] c"\02\00\00\00\00\00\00\00", ptr @alloc200, [8 x i8] c"\02\00\00\00\00\00\00\00", ptr @alloc201, [8 x i8] c"\02\00\00\00\00\00\00\00", ptr @alloc202, [8 x i8] c"\02\00\00\00\00\00\00\00", ptr @alloc203, [8 x i8] c"\02\00\00\00\00\00\00\00", ptr @alloc204, [8 x i8] c"\02\00\00\00\00\00\00\00", ptr @alloc205, [8 x i8] c"\02\00\00\00\00\00\00\00", ptr @alloc206, [8 x i8] c"\02\00\00\00\00\00\00\00", ptr @alloc207, [8 x i8] c"\02\00\00\00\00\00\00\00", ptr @alloc208, [8 x i8] c"\02\00\00\00\00\00\00\00", ptr @alloc209, [8 x i8] c"\02\00\00\00\00\00\00\00", ptr @alloc210, [8 x i8] c"\02\00\00\00\00\00\00\00", ptr @alloc211, [8 x i8] c"\02\00\00\00\00\00\00\00", ptr @alloc212, [8 x i8] c"\02\00\00\00\00\00\00\00", ptr @alloc213, [8 x i8] c"\02\00\00\00\00\00\00\00", ptr @alloc214, [8 x i8] c"\02\00\00\00\00\00\00\00", ptr @alloc215, [8 x i8] c"\02\00\00\00\00\00\00\00", ptr @alloc216, [8 x i8] c"\02\00\00\00\00\00\00\00", ptr @alloc217, [8 x i8] c"\02\00\00\00\00\00\00\00", ptr @alloc218, [8 x i8] c"\02\00\00\00\00\00\00\00", ptr @alloc219, [8 x i8] c"\02\00\00\00\00\00\00\00", ptr @alloc220, [8 x i8] c"\02\00\00\00\00\00\00\00", ptr @alloc221, [8 x i8] c"\02\00\00\00\00\00\00\00", ptr @alloc222, [8 x i8] c"\02\00\00\00\00\00\00\00", ptr @alloc223, [8 x i8] c"\02\00\00\00\00\00\00\00", ptr @alloc224, [8 x i8] c"\02\00\00\00\00\00\00\00", ptr @alloc225, [8 x i8] c"\02\00\00\00\00\00\00\00", ptr @alloc226, [8 x i8] c"\02\00\00\00\00\00\00\00", ptr @alloc227, [8 x i8] c"\02\00\00\00\00\00\00\00", ptr @alloc228, [8 x i8] c"\02\00\00\00\00\00\00\00", ptr @alloc229, [8 x i8] c"\02\00\00\00\00\00\00\00", ptr @alloc230, [8 x i8] c"\02\00\00\00\00\00\00\00", ptr @alloc231, [8 x i8] c"\02\00\00\00\00\00\00\00", ptr @alloc232, [8 x i8] c"\02\00\00\00\00\00\00\00", ptr @alloc233, [8 x i8] c"\02\00\00\00\00\00\00\00", ptr @alloc234, [8 x i8] c"\02\00\00\00\00\00\00\00", ptr @alloc235, [8 x i8] c"\02\00\00\00\00\00\00\00", ptr @alloc236, [8 x i8] c"\02\00\00\00\00\00\00\00", ptr @alloc237, [8 x i8] c"\02\00\00\00\00\00\00\00", ptr @alloc238, [8 x i8] c"\02\00\00\00\00\00\00\00", ptr @alloc239, [8 x i8] c"\02\00\00\00\00\00\00\00", ptr @alloc240, [8 x i8] c"\02\00\00\00\00\00\00\00", ptr @alloc241, [8 x i8] c"\02\00\00\00\00\00\00\00", ptr @alloc242, [8 x i8] c"\02\00\00\00\00\00\00\00", ptr @alloc243, [8 x i8] c"\02\00\00\00\00\00\00\00", ptr @alloc244, [8 x i8] c"\02\00\00\00\00\00\00\00", ptr @alloc245, [8 x i8] c"\02\00\00\00\00\00\00\00", ptr @alloc246, [8 x i8] c"\02\00\00\00\00\00\00\00", ptr @alloc247, [8 x i8] c"\02\00\00\00\00\00\00\00", ptr @alloc248, [8 x i8] c"\02\00\00\00\00\00\00\00", ptr @alloc249, [8 x i8] c"\02\00\00\00\00\00\00\00", ptr @alloc250, [8 x i8] c"\02\00\00\00\00\00\00\00", ptr @alloc251, [8 x i8] c"\02\00\00\00\00\00\00\00", ptr @alloc252, [8 x i8] c"\02\00\00\00\00\00\00\00", ptr @alloc253, [8 x i8] c"\02\00\00\00\00\00\00\00", ptr @alloc254, [8 x i8] c"\02\00\00\00\00\00\00\00", ptr @alloc255, [8 x i8] c"\02\00\00\00\00\00\00\00", ptr @alloc256, [8 x i8] c"\02\00\00\00\00\00\00\00", ptr @alloc257, [8 x i8] c"\02\00\00\00\00\00\00\00", ptr @alloc258, [8 x i8] c"\02\00\00\00\00\00\00\00", ptr @alloc259, [8 x i8] c"\02\00\00\00\00\00\00\00", ptr @alloc260, [8 x i8] c"\02\00\00\00\00\00\00\00", ptr @alloc261, [8 x i8] c"\02\00\00\00\00\00\00\00", ptr @alloc262, [8 x i8] c"\02\00\00\00\00\00\00\00", ptr @alloc263, [8 x i8] c"\02\00\00\00\00\00\00\00", ptr @alloc264, [8 x i8] c"\02\00\00\00\00\00\00\00", ptr @alloc265, [8 x i8] c"\02\00\00\00\00\00\00\00", ptr @alloc266, [8 x i8] c"\02\00\00\00\00\00\00\00", ptr @alloc267, [8 x i8] c"\02\00\00\00\00\00\00\00", ptr @alloc268, [8 x i8] c"\02\00\00\00\00\00\00\00", ptr @alloc269, [8 x i8] c"\02\00\00\00\00\00\00\00", ptr @alloc270, [8 x i8] c"\02\00\00\00\00\00\00\00", ptr @alloc271, [8 x i8] c"\02\00\00\00\00\00\00\00", ptr @alloc272, [8 x i8] c"\02\00\00\00\00\00\00\00", ptr @alloc273, [8 x i8] c"\02\00\00\00\00\00\00\00", ptr @alloc274, [8 x i8] c"\02\00\00\00\00\00\00\00", ptr @alloc275, [8 x i8] c"\02\00\00\00\00\00\00\00", ptr @alloc276, [8 x i8] c"\02\00\00\00\00\00\00\00", ptr @alloc277, [8 x i8] c"\02\00\00\00\00\00\00\00", ptr @alloc278, [8 x i8] c"\02\00\00\00\00\00\00\00", ptr @alloc279, [8 x i8] c"\02\00\00\00\00\00\00\00", ptr @alloc280, [8 x i8] c"\02\00\00\00\00\00\00\00", ptr @alloc281, [8 x i8] c"\02\00\00\00\00\00\00\00", ptr @alloc282, [8 x i8] c"\02\00\00\00\00\00\00\00", ptr @alloc283, [8 x i8] c"\02\00\00\00\00\00\00\00", ptr @alloc284, [8 x i8] c"\02\00\00\00\00\00\00\00", ptr @alloc285, [8 x i8] c"\02\00\00\00\00\00\00\00", ptr @alloc286, [8 x i8] c"\02\00\00\00\00\00\00\00", ptr @alloc287, [8 x i8] c"\02\00\00\00\00\00\00\00", ptr @alloc288, [8 x i8] c"\02\00\00\00\00\00\00\00", ptr @alloc289, [8 x i8] c"\02\00\00\00\00\00\00\00", ptr @alloc290, [8 x i8] c"\02\00\00\00\00\00\00\00", ptr @alloc291, [8 x i8] c"\02\00\00\00\00\00\00\00", ptr @alloc292, [8 x i8] c"\02\00\00\00\00\00\00\00", ptr @alloc293, [8 x i8] c"\02\00\00\00\00\00\00\00", ptr @alloc294, [8 x i8] c"\02\00\00\00\00\00\00\00", ptr @alloc295, [8 x i8] c"\02\00\00\00\00\00\00\00", ptr @alloc296, [8 x i8] c"\02\00\00\00\00\00\00\00", ptr @alloc297, [8 x i8] c"\02\00\00\00\00\00\00\00", ptr @alloc298, [8 x i8] c"\02\00\00\00\00\00\00\00", ptr @alloc299, [8 x i8] c"\02\00\00\00\00\00\00\00", ptr @alloc300, [8 x i8] c"\02\00\00\00\00\00\00\00", ptr @alloc301, [8 x i8] c"\02\00\00\00\00\00\00\00", ptr @alloc302, [8 x i8] c"\02\00\00\00\00\00\00\00", ptr @alloc303, [8 x i8] c"\02\00\00\00\00\00\00\00", ptr @alloc304, [8 x i8] c"\02\00\00\00\00\00\00\00", ptr @alloc305, [8 x i8] c"\02\00\00\00\00\00\00\00", ptr @alloc306, [8 x i8] c"\02\00\00\00\00\00\00\00", ptr @alloc307, [8 x i8] c"\02\00\00\00\00\00\00\00", ptr @alloc308, [8 x i8] c"\02\00\00\00\00\00\00\00", ptr @alloc309, [8 x i8] c"\02\00\00\00\00\00\00\00", ptr @alloc310, [8 x i8] c"\02\00\00\00\00\00\00\00", ptr @alloc311, [8 x i8] c"\02\00\00\00\00\00\00\00", ptr @alloc312, [8 x i8] c"\02\00\00\00\00\00\00\00", ptr @alloc313, [8 x i8] c"\02\00\00\00\00\00\00\00", ptr @alloc314, [8 x i8] c"\02\00\00\00\00\00\00\00", ptr @alloc315, [8 x i8] c"\02\00\00\00\00\00\00\00", ptr @alloc316, [8 x i8] c"\02\00\00\00\00\00\00\00", ptr @alloc317, [8 x i8] c"\02\00\00\00\00\00\00\00", ptr @alloc318, [8 x i8] c"\02\00\00\00\00\00\00\00", ptr @alloc319, [8 x i8] c"\02\00\00\00\00\00\00\00", ptr @alloc320, [8 x i8] c"\02\00\00\00\00\00\00\00", ptr @alloc321, [8 x i8] c"\02\00\00\00\00\00\00\00", ptr @alloc322, [8 x i8] c"\02\00\00\00\00\00\00\00", ptr @alloc323, [8 x i8] c"\02\00\00\00\00\00\00\00", ptr @alloc324, [8 x i8] c"\02\00\00\00\00\00\00\00", ptr @alloc325, [8 x i8] c"\02\00\00\00\00\00\00\00", ptr @alloc326, [8 x i8] c"\02\00\00\00\00\00\00\00", ptr @alloc327, [8 x i8] c"\02\00\00\00\00\00\00\00", ptr @alloc328, [8 x i8] c"\02\00\00\00\00\00\00\00", ptr @alloc329, [8 x i8] c"\02\00\00\00\00\00\00\00", ptr @alloc330, [8 x i8] c"\02\00\00\00\00\00\00\00", ptr @alloc331, [8 x i8] c"\02\00\00\00\00\00\00\00", ptr @alloc332, [8 x i8] c"\02\00\00\00\00\00\00\00", ptr @alloc333, [8 x i8] c"\02\00\00\00\00\00\00\00", ptr @alloc334, [8 x i8] c"\02\00\00\00\00\00\00\00", ptr @alloc335, [8 x i8] c"\02\00\00\00\00\00\00\00", ptr @alloc336, [8 x i8] c"\02\00\00\00\00\00\00\00", ptr @alloc337, [8 x i8] c"\02\00\00\00\00\00\00\00", ptr @alloc338, [8 x i8] c"\02\00\00\00\00\00\00\00", ptr @alloc339, [8 x i8] c"\02\00\00\00\00\00\00\00", ptr @alloc340, [8 x i8] c"\02\00\00\00\00\00\00\00", ptr @alloc341, [8 x i8] c"\02\00\00\00\00\00\00\00", ptr @alloc342, [8 x i8] c"\02\00\00\00\00\00\00\00", ptr @alloc343, [8 x i8] c"\02\00\00\00\00\00\00\00", ptr @alloc344, [8 x i8] c"\02\00\00\00\00\00\00\00", ptr @alloc345, [8 x i8] c"\02\00\00\00\00\00\00\00", ptr @alloc346, [8 x i8] c"\02\00\00\00\00\00\00\00", ptr @alloc347, [8 x i8] c"\02\00\00\00\00\00\00\00", ptr @alloc348, [8 x i8] c"\02\00\00\00\00\00\00\00", ptr @alloc349, [8 x i8] c"\02\00\00\00\00\00\00\00", ptr @alloc350, [8 x i8] c"\02\00\00\00\00\00\00\00", ptr @alloc351, [8 x i8] c"\02\00\00\00\00\00\00\00", ptr @alloc352, [8 x i8] c"\02\00\00\00\00\00\00\00", ptr @alloc353, [8 x i8] c"\02\00\00\00\00\00\00\00", ptr @alloc354, [8 x i8] c"\02\00\00\00\00\00\00\00", ptr @alloc355, [8 x i8] c"\02\00\00\00\00\00\00\00", ptr @alloc356, [8 x i8] c"\02\00\00\00\00\00\00\00", ptr @alloc357, [8 x i8] c"\02\00\00\00\00\00\00\00", ptr @alloc358, [8 x i8] c"\02\00\00\00\00\00\00\00", ptr @alloc359, [8 x i8] c"\02\00\00\00\00\00\00\00", ptr @alloc360, [8 x i8] c"\02\00\00\00\00\00\00\00", ptr @alloc361, [8 x i8] c"\02\00\00\00\00\00\00\00", ptr @alloc362, [8 x i8] c"\02\00\00\00\00\00\00\00", ptr @alloc363, [8 x i8] c"\02\00\00\00\00\00\00\00", ptr @alloc364, [8 x i8] c"\02\00\00\00\00\00\00\00", ptr @alloc365, [8 x i8] c"\02\00\00\00\00\00\00\00", ptr @alloc366, [8 x i8] c"\02\00\00\00\00\00\00\00", ptr @alloc367, [8 x i8] c"\02\00\00\00\00\00\00\00", ptr @alloc368, [8 x i8] c"\02\00\00\00\00\00\00\00", ptr @alloc369, [8 x i8] c"\02\00\00\00\00\00\00\00", ptr @alloc370, [8 x i8] c"\02\00\00\00\00\00\00\00", ptr @alloc371, [8 x i8] c"\02\00\00\00\00\00\00\00", ptr @alloc372, [8 x i8] c"\02\00\00\00\00\00\00\00", ptr @alloc373, [8 x i8] c"\02\00\00\00\00\00\00\00", ptr @alloc374, [8 x i8] c"\02\00\00\00\00\00\00\00", ptr @alloc375, [8 x i8] c"\02\00\00\00\00\00\00\00", ptr @alloc376, [8 x i8] c"\02\00\00\00\00\00\00\00", ptr @alloc377, [8 x i8] c"\02\00\00\00\00\00\00\00", ptr @alloc378, [8 x i8] c"\02\00\00\00\00\00\00\00", ptr @alloc379, [8 x i8] c"\02\00\00\00\00\00\00\00", ptr @alloc380, [8 x i8] c"\02\00\00\00\00\00\00\00", ptr @alloc381, [8 x i8] c"\02\00\00\00\00\00\00\00", ptr @alloc382, [8 x i8] c"\02\00\00\00\00\00\00\00", ptr @alloc383, [8 x i8] c"\02\00\00\00\00\00\00\00", ptr @alloc384, [8 x i8] c"\02\00\00\00\00\00\00\00", ptr @alloc385, [8 x i8] c"\02\00\00\00\00\00\00\00", ptr @alloc386, [8 x i8] c"\02\00\00\00\00\00\00\00", ptr @alloc387, [8 x i8] c"\02\00\00\00\00\00\00\00", ptr @alloc388, [8 x i8] c"\02\00\00\00\00\00\00\00", ptr @alloc389, [8 x i8] c"\02\00\00\00\00\00\00\00", ptr @alloc390, [8 x i8] c"\02\00\00\00\00\00\00\00", ptr @alloc391, [8 x i8] c"\02\00\00\00\00\00\00\00", ptr @alloc392, [8 x i8] c"\02\00\00\00\00\00\00\00", ptr @alloc393, [8 x i8] c"\02\00\00\00\00\00\00\00", ptr @alloc394, [8 x i8] c"\02\00\00\00\00\00\00\00", ptr @alloc395, [8 x i8] c"\02\00\00\00\00\00\00\00", ptr @alloc396, [8 x i8] c"\02\00\00\00\00\00\00\00", ptr @alloc397, [8 x i8] c"\02\00\00\00\00\00\00\00", ptr @alloc398, [8 x i8] c"\02\00\00\00\00\00\00\00", ptr @alloc399, [8 x i8] c"\02\00\00\00\00\00\00\00", ptr @alloc400, [8 x i8] c"\02\00\00\00\00\00\00\00", ptr @alloc401, [8 x i8] c"\02\00\00\00\00\00\00\00", ptr @alloc402, [8 x i8] c"\02\00\00\00\00\00\00\00", ptr @alloc403, [8 x i8] c"\02\00\00\00\00\00\00\00", ptr @alloc404, [8 x i8] c"\02\00\00\00\00\00\00\00", ptr @alloc405, [8 x i8] c"\02\00\00\00\00\00\00\00", ptr @alloc406, [8 x i8] c"\02\00\00\00\00\00\00\00", ptr @alloc407, [8 x i8] c"\02\00\00\00\00\00\00\00", ptr @alloc408, [8 x i8] c"\02\00\00\00\00\00\00\00", ptr @alloc409, [8 x i8] c"\02\00\00\00\00\00\00\00", ptr @alloc410, [8 x i8] c"\02\00\00\00\00\00\00\00", ptr @alloc411, [8 x i8] c"\02\00\00\00\00\00\00\00", ptr @alloc412, [8 x i8] c"\02\00\00\00\00\00\00\00", ptr @alloc413, [8 x i8] c"\02\00\00\00\00\00\00\00", ptr @alloc414, [8 x i8] c"\02\00\00\00\00\00\00\00", ptr @alloc415, [8 x i8] c"\02\00\00\00\00\00\00\00", ptr @alloc416, [8 x i8] c"\02\00\00\00\00\00\00\00", ptr @alloc417, [8 x i8] c"\02\00\00\00\00\00\00\00", ptr @alloc418, [8 x i8] c"\02\00\00\00\00\00\00\00", ptr @alloc419, [8 x i8] c"\02\00\00\00\00\00\00\00", ptr @alloc420, [8 x i8] c"\02\00\00\00\00\00\00\00", ptr @alloc421, [8 x i8] c"\02\00\00\00\00\00\00\00", ptr @alloc422, [8 x i8] c"\02\00\00\00\00\00\00\00", ptr @alloc423, [8 x i8] c"\02\00\00\00\00\00\00\00", ptr @alloc424, [8 x i8] c"\02\00\00\00\00\00\00\00", ptr @alloc425, [8 x i8] c"\02\00\00\00\00\00\00\00", ptr @alloc426, [8 x i8] c"\02\00\00\00\00\00\00\00", ptr @alloc427, [8 x i8] c"\02\00\00\00\00\00\00\00", ptr @alloc428, [8 x i8] c"\02\00\00\00\00\00\00\00", ptr @alloc429, [8 x i8] c"\02\00\00\00\00\00\00\00", ptr @alloc430, [8 x i8] c"\02\00\00\00\00\00\00\00", ptr @alloc431, [8 x i8] c"\02\00\00\00\00\00\00\00", ptr @alloc432, [8 x i8] c"\02\00\00\00\00\00\00\00", ptr @alloc433, [8 x i8] c"\02\00\00\00\00\00\00\00", ptr @alloc434, [8 x i8] c"\02\00\00\00\00\00\00\00", ptr @alloc435, [8 x i8] c"\02\00\00\00\00\00\00\00", ptr @alloc436, [8 x i8] c"\02\00\00\00\00\00\00\00", ptr @alloc437, [8 x i8] c"\02\00\00\00\00\00\00\00", ptr @alloc438, [8 x i8] c"\02\00\00\00\00\00\00\00", ptr @alloc439, [8 x i8] c"\02\00\00\00\00\00\00\00", ptr @alloc440, [8 x i8] c"\02\00\00\00\00\00\00\00", ptr @alloc441, [8 x i8] c"\02\00\00\00\00\00\00\00", ptr @alloc442, [8 x i8] c"\02\00\00\00\00\00\00\00", ptr @alloc443, [8 x i8] c"\02\00\00\00\00\00\00\00", ptr @alloc444, [8 x i8] c"\02\00\00\00\00\00\00\00", ptr @alloc445, [8 x i8] c"\02\00\00\00\00\00\00\00", ptr @alloc446, [8 x i8] c"\02\00\00\00\00\00\00\00", ptr @alloc447, [8 x i8] c"\02\00\00\00\00\00\00\00", ptr @alloc448, [8 x i8] c"\02\00\00\00\00\00\00\00", ptr @alloc449, [8 x i8] c"\02\00\00\00\00\00\00\00", ptr @alloc450, [8 x i8] c"\02\00\00\00\00\00\00\00" }>, align 8
@alloc580 = private unnamed_addr constant <{ [3 x i8] }> <{ [3 x i8] c"Log" }>, align 1
@alloc745 = private unnamed_addr constant <{ [7 x i8] }> <{ [7 x i8] c"address" }>, align 1
@alloc573 = private unnamed_addr constant <{ [4 x i8] }> <{ [4 x i8] c"data" }>, align 1
@alloc575 = private unnamed_addr constant <{ [11 x i8] }> <{ [11 x i8] c"block_index" }>, align 1
@alloc751 = private unnamed_addr constant <{ [7 x i8] }> <{ [7 x i8] c"ordinal" }>, align 1
@alloc579 = private unnamed_addr constant <{ [6 x i8] }> <{ [6 x i8] c"topics" }>, align 1
@alloc763 = private unnamed_addr constant <{ [5 x i8] }> <{ [5 x i8] c"index" }>, align 1
@alloc634 = private unnamed_addr constant <{ [4 x i8] }> <{ [4 x i8] c"Call" }>, align 1
@alloc583 = private unnamed_addr constant <{ [16 x i8] }> <{ [16 x i8] c"keccak_preimages" }>, align 1
@alloc585 = private unnamed_addr constant <{ [12 x i8] }> <{ [12 x i8] c"gas_consumed" }>, align 1
@alloc587 = private unnamed_addr constant <{ [15 x i8] }> <{ [15 x i8] c"status_reverted" }>, align 1
@alloc791 = private unnamed_addr constant <{ [5 x i8] }> <{ [5 x i8] c"input" }>, align 1
@alloc591 = private unnamed_addr constant <{ [17 x i8] }> <{ [17 x i8] c"account_creations" }>, align 1
@alloc593 = private unnamed_addr constant <{ [14 x i8] }> <{ [14 x i8] c"state_reverted" }>, align 1
@alloc637 = private unnamed_addr constant <{ [15 x i8] }> <{ [15 x i8] c"balance_changes" }>, align 1
@alloc597 = private unnamed_addr constant <{ [6 x i8] }> <{ [6 x i8] c"caller" }>, align 1
@alloc765 = private unnamed_addr constant <{ [9 x i8] }> <{ [9 x i8] c"gas_limit" }>, align 1
@alloc755 = private unnamed_addr constant <{ [11 x i8] }> <{ [11 x i8] c"return_data" }>, align 1
@alloc605 = private unnamed_addr constant <{ [11 x i8] }> <{ [11 x i8] c"gas_changes" }>, align 1
@alloc789 = private unnamed_addr constant <{ [11 x i8] }> <{ [11 x i8] c"end_ordinal" }>, align 1
@alloc609 = private unnamed_addr constant <{ [7 x i8] }> <{ [7 x i8] c"suicide" }>, align 1
@alloc645 = private unnamed_addr constant <{ [12 x i8] }> <{ [12 x i8] c"code_changes" }>, align 1
@alloc757 = private unnamed_addr constant <{ [5 x i8] }> <{ [5 x i8] c"value" }>, align 1
@alloc807 = private unnamed_addr constant <{ [4 x i8] }> <{ [4 x i8] c"logs" }>, align 1
@alloc619 = private unnamed_addr constant <{ [12 x i8] }> <{ [12 x i8] c"parent_index" }>, align 1
@alloc621 = private unnamed_addr constant <{ [13 x i8] }> <{ [13 x i8] c"status_failed" }>, align 1
@alloc623 = private unnamed_addr constant <{ [5 x i8] }> <{ [5 x i8] c"depth" }>, align 1
@alloc625 = private unnamed_addr constant <{ [14 x i8] }> <{ [14 x i8] c"failure_reason" }>, align 1
@alloc627 = private unnamed_addr constant <{ [13 x i8] }> <{ [13 x i8] c"nonce_changes" }>, align 1
@alloc629 = private unnamed_addr constant <{ [13 x i8] }> <{ [13 x i8] c"executed_code" }>, align 1
@alloc777 = private unnamed_addr constant <{ [13 x i8] }> <{ [13 x i8] c"begin_ordinal" }>, align 1
@alloc633 = private unnamed_addr constant <{ [9 x i8] }> <{ [9 x i8] c"call_type" }>, align 1
@alloc635 = private unnamed_addr constant <{ [15 x i8] }> <{ [15 x i8] c"storage_changes" }>, align 1
@alloc652 = private unnamed_addr constant <{ [5 x i8] }> <{ [5 x i8] c"Block" }>, align 1
@alloc639 = private unnamed_addr constant <{ [6 x i8] }> <{ [6 x i8] c"uncles" }>, align 1
@alloc641 = private unnamed_addr constant <{ [4 x i8] }> <{ [4 x i8] c"size" }>, align 1
@alloc643 = private unnamed_addr constant <{ [3 x i8] }> <{ [3 x i8] c"ver" }>, align 1
@alloc647 = private unnamed_addr constant <{ [18 x i8] }> <{ [18 x i8] c"transaction_traces" }>, align 1
@alloc649 = private unnamed_addr constant <{ [6 x i8] }> <{ [6 x i8] c"header" }>, align 1
@alloc952 = private unnamed_addr constant <{ [4 x i8] }> <{ [4 x i8] c"hash" }>, align 1
@alloc956 = private unnamed_addr constant <{ [6 x i8] }> <{ [6 x i8] c"number" }>, align 1
@alloc654 = private unnamed_addr constant <{ [6 x i8] }> <{ [6 x i8] c"BigInt" }>, align 1
@alloc655 = private unnamed_addr constant <{ [5 x i8] }> <{ [5 x i8] c"bytes" }>, align 1
@alloc662 = private unnamed_addr constant <{ [9 x i8] }> <{ [9 x i8] c"GasChange" }>, align 1
@alloc749 = private unnamed_addr constant <{ [9 x i8] }> <{ [9 x i8] c"new_value" }>, align 1
@alloc747 = private unnamed_addr constant <{ [9 x i8] }> <{ [9 x i8] c"old_value" }>, align 1
@alloc733 = private unnamed_addr constant <{ [6 x i8] }> <{ [6 x i8] c"reason" }>, align 1
@alloc674 = private unnamed_addr constant <{ [10 x i8] }> <{ [10 x i8] c"CodeChange" }>, align 1
@alloc667 = private unnamed_addr constant <{ [8 x i8] }> <{ [8 x i8] c"new_hash" }>, align 1
@alloc669 = private unnamed_addr constant <{ [8 x i8] }> <{ [8 x i8] c"old_hash" }>, align 1
@alloc671 = private unnamed_addr constant <{ [8 x i8] }> <{ [8 x i8] c"new_code" }>, align 1
@alloc673 = private unnamed_addr constant <{ [8 x i8] }> <{ [8 x i8] c"old_code" }>, align 1
@alloc678 = private unnamed_addr constant <{ [11 x i8] }> <{ [11 x i8] c"AccessTuple" }>, align 1
@alloc677 = private unnamed_addr constant <{ [12 x i8] }> <{ [12 x i8] c"storage_keys" }>, align 1
@alloc718 = private unnamed_addr constant <{ [11 x i8] }> <{ [11 x i8] c"BlockHeader" }>, align 1
@alloc961 = private unnamed_addr constant <{ [9 x i8] }> <{ [9 x i8] c"timestamp" }>, align 1
@alloc683 = private unnamed_addr constant <{ [10 x i8] }> <{ [10 x i8] c"uncle_hash" }>, align 1
@alloc799 = private unnamed_addr constant <{ [8 x i8] }> <{ [8 x i8] c"gas_used" }>, align 1
@alloc687 = private unnamed_addr constant <{ [16 x i8] }> <{ [16 x i8] c"withdrawals_root" }>, align 1
@alloc689 = private unnamed_addr constant <{ [16 x i8] }> <{ [16 x i8] c"total_difficulty" }>, align 1
@alloc960 = private unnamed_addr constant <{ [11 x i8] }> <{ [11 x i8] c"parent_hash" }>, align 1
@alloc693 = private unnamed_addr constant <{ [17 x i8] }> <{ [17 x i8] c"transactions_root" }>, align 1
@alloc695 = private unnamed_addr constant <{ [8 x i8] }> <{ [8 x i8] c"mix_hash" }>, align 1
@alloc697 = private unnamed_addr constant <{ [8 x i8] }> <{ [8 x i8] c"coinbase" }>, align 1
@alloc809 = private unnamed_addr constant <{ [10 x i8] }> <{ [10 x i8] c"logs_bloom" }>, align 1
@alloc707 = private unnamed_addr constant <{ [16 x i8] }> <{ [16 x i8] c"base_fee_per_gas" }>, align 1
@alloc811 = private unnamed_addr constant <{ [10 x i8] }> <{ [10 x i8] c"state_root" }>, align 1
@alloc711 = private unnamed_addr constant <{ [12 x i8] }> <{ [12 x i8] c"receipt_root" }>, align 1
@alloc713 = private unnamed_addr constant <{ [13 x i8] }> <{ [13 x i8] c"tx_dependency" }>, align 1
@alloc715 = private unnamed_addr constant <{ [10 x i8] }> <{ [10 x i8] c"extra_data" }>, align 1
@alloc767 = private unnamed_addr constant <{ [5 x i8] }> <{ [5 x i8] c"nonce" }>, align 1
@alloc719 = private unnamed_addr constant <{ [10 x i8] }> <{ [10 x i8] c"difficulty" }>, align 1
@alloc726 = private unnamed_addr constant <{ [11 x i8] }> <{ [11 x i8] c"NonceChange" }>, align 1
@alloc728 = private unnamed_addr constant <{ [11 x i8] }> <{ [11 x i8] c"Uint64Array" }>, align 1
@alloc803 = private unnamed_addr constant <{ [3 x i8] }> <{ [3 x i8] c"val" }>, align 1
@alloc738 = private unnamed_addr constant <{ [13 x i8] }> <{ [13 x i8] c"BalanceChange" }>, align 1
@alloc748 = private unnamed_addr constant <{ [13 x i8] }> <{ [13 x i8] c"StorageChange" }>, align 1
@alloc741 = private unnamed_addr constant <{ [3 x i8] }> <{ [3 x i8] c"key" }>, align 1
@alloc752 = private unnamed_addr constant <{ [15 x i8] }> <{ [15 x i8] c"AccountCreation" }>, align 1
@alloc753 = private unnamed_addr constant <{ [7 x i8] }> <{ [7 x i8] c"account" }>, align 1
@alloc800 = private unnamed_addr constant <{ [16 x i8] }> <{ [16 x i8] c"TransactionTrace" }>, align 1
@alloc759 = private unnamed_addr constant <{ [2 x i8] }> <{ [2 x i8] c"to" }>, align 1
@alloc761 = private unnamed_addr constant <{ [6 x i8] }> <{ [6 x i8] c"status" }>, align 1
@alloc769 = private unnamed_addr constant <{ [24 x i8] }> <{ [24 x i8] c"max_priority_fee_per_gas" }>, align 1
@alloc771 = private unnamed_addr constant <{ [1 x i8] }> <{ [1 x i8] c"r" }>, align 1
@alloc773 = private unnamed_addr constant <{ [7 x i8] }> <{ [7 x i8] c"receipt" }>, align 1
@alloc775 = private unnamed_addr constant <{ [1 x i8] }> <{ [1 x i8] c"v" }>, align 1
@alloc779 = private unnamed_addr constant <{ [5 x i8] }> <{ [5 x i8] c"calls" }>, align 1
@alloc781 = private unnamed_addr constant <{ [10 x i8] }> <{ [10 x i8] c"public_key" }>, align 1
@alloc783 = private unnamed_addr constant <{ [4 x i8] }> <{ [4 x i8] c"from" }>, align 1
@alloc785 = private unnamed_addr constant <{ [11 x i8] }> <{ [11 x i8] c"access_list" }>, align 1
@alloc787 = private unnamed_addr constant <{ [15 x i8] }> <{ [15 x i8] c"max_fee_per_gas" }>, align 1
@alloc793 = private unnamed_addr constant <{ [6 x i8] }> <{ [6 x i8] c"r#type" }>, align 1
@alloc797 = private unnamed_addr constant <{ [9 x i8] }> <{ [9 x i8] c"gas_price" }>, align 1
@alloc801 = private unnamed_addr constant <{ [1 x i8] }> <{ [1 x i8] c"s" }>, align 1
@alloc802 = private unnamed_addr constant <{ [17 x i8] }> <{ [17 x i8] c"Uint64NestedArray" }>, align 1
@alloc810 = private unnamed_addr constant <{ [18 x i8] }> <{ [18 x i8] c"TransactionReceipt" }>, align 1
@alloc805 = private unnamed_addr constant <{ [19 x i8] }> <{ [19 x i8] c"cumulative_gas_used" }>, align 1
@vtable.0 = private unnamed_addr constant <{ ptr, [16 x i8], ptr, ptr, ptr }> <{ ptr @"_ZN4core3ptr42drop_in_place$LT$alloc..string..String$GT$17h21c9543bd1b9d18cE", [16 x i8] c"\18\00\00\00\00\00\00\00\08\00\00\00\00\00\00\00", ptr @"_ZN58_$LT$alloc..string..String$u20$as$u20$core..fmt..Write$GT$9write_str17h44e168be6f341a72E", ptr @"_ZN58_$LT$alloc..string..String$u20$as$u20$core..fmt..Write$GT$10write_char17h664c6cefbebd0d24E", ptr @_ZN4core3fmt5Write9write_fmt17h616b65c3ba01b085E }>, align 8
@alloc69 = private unnamed_addr constant <{}> zeroinitializer, align 8
@alloc84 = private unnamed_addr constant <{ [12 x i8] }> <{ [12 x i8] c"invalid args" }>, align 1
@alloc85 = private unnamed_addr constant <{ ptr, [8 x i8] }> <{ ptr @alloc84, [8 x i8] c"\0C\00\00\00\00\00\00\00" }>, align 8
@alloc456 = private unnamed_addr constant <{ [18 x i8] }> <{ [18 x i8] c"encode_utf8: need " }>, align 1
@alloc458 = private unnamed_addr constant <{ [19 x i8] }> <{ [19 x i8] c" bytes to encode U+" }>, align 1
@alloc459 = private unnamed_addr constant <{ [21 x i8] }> <{ [21 x i8] c", but the buffer has " }>, align 1
@alloc457 = private unnamed_addr constant <{ ptr, [8 x i8], ptr, [8 x i8], ptr, [8 x i8] }> <{ ptr @alloc456, [8 x i8] c"\12\00\00\00\00\00\00\00", ptr @alloc458, [8 x i8] c"\13\00\00\00\00\00\00\00", ptr @alloc459, [8 x i8] c"\15\00\00\00\00\00\00\00" }>, align 8
@alloc135 = private unnamed_addr constant <{ [22 x i8] }> <{ [22 x i8] c"slice index starts at " }>, align 1
@alloc137 = private unnamed_addr constant <{ [13 x i8] }> <{ [13 x i8] c" but ends at " }>, align 1
@alloc136 = private unnamed_addr constant <{ ptr, [8 x i8], ptr, [8 x i8] }> <{ ptr @alloc135, [8 x i8] c"\16\00\00\00\00\00\00\00", ptr @alloc137, [8 x i8] c"\0D\00\00\00\00\00\00\00" }>, align 8
@alloc139 = private unnamed_addr constant <{ [16 x i8] }> <{ [16 x i8] c"range end index " }>, align 1
@alloc141 = private unnamed_addr constant <{ [34 x i8] }> <{ [34 x i8] c" out of range for slice of length " }>, align 1
@alloc140 = private unnamed_addr constant <{ ptr, [8 x i8], ptr, [8 x i8] }> <{ ptr @alloc139, [8 x i8] c"\10\00\00\00\00\00\00\00", ptr @alloc141, [8 x i8] c"\22\00\00\00\00\00\00\00" }>, align 8
@alloc80 = private unnamed_addr constant <{ [19 x i8] }> <{ [19 x i8] c"invalid key value: " }>, align 1
@alloc81 = private unnamed_addr constant <{ ptr, [8 x i8] }> <{ ptr @alloc80, [8 x i8] c"\13\00\00\00\00\00\00\00" }>, align 8
@alloc845 = private unnamed_addr constant <{ [20 x i8] }> <{ [20 x i8] c"invalid tag value: 0" }>, align 1
@alloc907 = private unnamed_addr constant <{ [16 x i8] }> <{ [16 x i8] c"buffer underflow" }>, align 1
@alloc885 = private unnamed_addr constant <{ [25 x i8] }> <{ [25 x i8] c"delimited length exceeded" }>, align 1
@alloc886 = private unnamed_addr constant <{ [23 x i8] }> <{ [23 x i8] c"recursion limit reached" }>, align 1
@alloc902 = private unnamed_addr constant <{ [14 x i8] }> <{ [14 x i8] c"invalid varint" }>, align 1
@alloc92 = private unnamed_addr constant <{ [19 x i8] }> <{ [19 x i8] c"invalid wire type: " }>, align 1
@alloc94 = private unnamed_addr constant <{ [11 x i8] }> <{ [11 x i8] c" (expected " }>, align 1
@alloc95 = private unnamed_addr constant <{ [1 x i8] }> <{ [1 x i8] c")" }>, align 1
@alloc93 = private unnamed_addr constant <{ ptr, [8 x i8], ptr, [8 x i8], ptr, [8 x i8] }> <{ ptr @alloc92, [8 x i8] c"\13\00\00\00\00\00\00\00", ptr @alloc94, [8 x i8] c"\0B\00\00\00\00\00\00\00", ptr @alloc95, [8 x i8] c"\01\00\00\00\00\00\00\00" }>, align 8
@alloc916 = private unnamed_addr constant <{ [47 x i8] }> <{ [47 x i8] c"invalid string value: data is not UTF-8 encoded" }>, align 1
@alloc105 = private unnamed_addr constant <{ [1 x i8] }> <{ [1 x i8] c"\02" }>, align 1
@alloc935 = private unnamed_addr constant <{ [9 x i8] }> <{ [9 x i8] c"Timestamp" }>, align 1
@alloc934 = private unnamed_addr constant <{ [5 x i8] }> <{ [5 x i8] c"nanos" }>, align 1
@alloc936 = private unnamed_addr constant <{ [7 x i8] }> <{ [7 x i8] c"seconds" }>, align 1
@alloc89 = private unnamed_addr constant <{ [25 x i8] }> <{ [25 x i8] c"invalid wire type value: " }>, align 1
@alloc90 = private unnamed_addr constant <{ ptr, [8 x i8] }> <{ ptr @alloc89, [8 x i8] c"\19\00\00\00\00\00\00\00" }>, align 8
@alloc156 = private unnamed_addr constant <{ [8 x i8] }> <{ [8 x i8] c"\FF\FF\FF\FF\FF\FF\FF\FF" }>, align 8
@alloc951 = private unnamed_addr constant <{ [9 x i8] }> <{ [9 x i8] c"BlockMeta" }>, align 1
@vtable.4 = private unnamed_addr constant <{ ptr, [16 x i8], ptr }> <{ ptr @"_ZN4core3ptr46drop_in_place$LT$$RF$alloc..string..String$GT$17h634f2fabaa5afeb3E", [16 x i8] c"\08\00\00\00\00\00\00\00\08\00\00\00\00\00\00\00", ptr @"_ZN42_$LT$$RF$T$u20$as$u20$core..fmt..Debug$GT$3fmt17h8a4fdd0bff11ac9aE" }>, align 8
@vtable.5 = private unnamed_addr constant <{ ptr, [16 x i8], ptr }> <{ ptr @"_ZN4core3ptr28drop_in_place$LT$$RF$u64$GT$17h5723304fdf42beadE", [16 x i8] c"\08\00\00\00\00\00\00\00\08\00\00\00\00\00\00\00", ptr @"_ZN42_$LT$$RF$T$u20$as$u20$core..fmt..Debug$GT$3fmt17hcde059cd772cd32bE" }>, align 8
@alloc70 = private unnamed_addr constant <{ ptr, [8 x i8] }> <{ ptr @alloc69, [8 x i8] zeroinitializer }>, align 8
@alloc186 = private unnamed_addr constant <{ [32 x i8] }> <{ [32 x i8] c"Unable to decode Protobuf data (" }>, align 1
@alloc188 = private unnamed_addr constant <{ [12 x i8] }> <{ [12 x i8] c" bytes) to '" }>, align 1
@alloc189 = private unnamed_addr constant <{ [18 x i8] }> <{ [18 x i8] c"' message's struct" }>, align 1
@alloc187 = private unnamed_addr constant <{ ptr, [8 x i8], ptr, [8 x i8], ptr, [8 x i8] }> <{ ptr @alloc186, [8 x i8] c" \00\00\00\00\00\00\00", ptr @alloc188, [8 x i8] c"\0C\00\00\00\00\00\00\00", ptr @alloc189, [8 x i8] c"\12\00\00\00\00\00\00\00" }>, align 8
@alloc191 = private unnamed_addr constant <{ [18 x i8] }> <{ [18 x i8] c"eth :: v2 :: Block" }>, align 1
@alloc192 = private unnamed_addr constant <{ ptr, [8 x i8] }> <{ ptr @alloc191, [8 x i8] c"\12\00\00\00\00\00\00\00" }>, align 8

; Function Attrs: optsize uwtable
define void @"_ZN10substreams3hex12Hex$LT$T$GT$9to_string17hfe309f49225bb8baE"(ptr noalias nocapture noundef sret(%"alloc::string::String") dereferenceable(24) %0, ptr noalias noundef readonly align 8 dereferenceable(8) %self) unnamed_addr #0 {
start:
  %1 = call fastcc { ptr, i64 } @"_ZN55_$LT$$RF$T$u20$as$u20$core..convert..AsRef$LT$U$GT$$GT$6as_ref17h51b210b3d1f0aa1cE"(ptr noalias noundef readonly align 8 dereferenceable(8) %self)
  %_2.0 = extractvalue { ptr, i64 } %1, 0
  %_2.1 = extractvalue { ptr, i64 } %1, 1
  call void @_ZN10substreams3hex16encode_lower_hex17hd4c1d25056ef90acE(ptr noalias nocapture noundef sret(%"alloc::string::String") dereferenceable(24) %0, ptr noalias noundef nonnull readonly align 1 %_2.0, i64 noundef %_2.1)
  ret void
}

; Function Attrs: inlinehint optsize uwtable
define internal fastcc { ptr, i64 } @"_ZN55_$LT$$RF$T$u20$as$u20$core..convert..AsRef$LT$U$GT$$GT$6as_ref17h51b210b3d1f0aa1cE"(ptr noalias noundef readonly align 8 dereferenceable(8) %self) unnamed_addr #1 {
start:
  %_3 = load ptr, ptr %self, align 8, !nonnull !1, !align !2, !noundef !1
  %0 = call { ptr, i64 } @"_ZN88_$LT$alloc..vec..Vec$LT$T$C$A$GT$$u20$as$u20$core..convert..AsRef$LT$$u5b$T$u5d$$GT$$GT$6as_ref17hbefe34232fff3ce8E"(ptr noalias noundef readonly align 8 dereferenceable(24) %_3)
  %1 = extractvalue { ptr, i64 } %0, 0
  %2 = extractvalue { ptr, i64 } %0, 1
  ret { ptr, i64 } %0
}

; Function Attrs: optsize uwtable
define void @_ZN10substreams3hex16encode_lower_hex17hd4c1d25056ef90acE(ptr noalias nocapture noundef sret(%"alloc::string::String") dereferenceable(24) %0, ptr noalias noundef nonnull readonly align 1 %1, i64 noundef %2) unnamed_addr #0 personality ptr @rust_eh_personality {
start:
  %buffer = alloca %"alloc::string::String", align 8
  %input = alloca { ptr, i64 }, align 8
  store ptr %1, ptr %input, align 8
  %3 = getelementptr inbounds { ptr, i64 }, ptr %input, i32 0, i32 1
  store i64 %2, ptr %3, align 8
  %4 = invoke fastcc { ptr, i64 } @"_ZN55_$LT$$RF$T$u20$as$u20$core..convert..AsRef$LT$U$GT$$GT$6as_ref17h1e3ad302348d7260E"(ptr noalias noundef readonly align 8 dereferenceable(16) %input)
          to label %bb1 unwind label %cleanup

bb12:                                             ; preds = %cleanup1, %cleanup
  %.sroa.6.0 = phi i32 [ %9, %cleanup ], [ %13, %cleanup1 ]
  %.sroa.0.0 = phi ptr [ %8, %cleanup ], [ %12, %cleanup1 ]
  %5 = insertvalue { ptr, i32 } undef, ptr %.sroa.0.0, 0
  %6 = insertvalue { ptr, i32 } %5, i32 %.sroa.6.0, 1
  resume { ptr, i32 } %6

cleanup:                                          ; preds = %bb5, %bb4, %bb3, %bb1, %start
  %7 = landingpad { ptr, i32 }
          cleanup
  %8 = extractvalue { ptr, i32 } %7, 0
  %9 = extractvalue { ptr, i32 } %7, 1
  br label %bb12

bb1:                                              ; preds = %start
  %_3.0 = extractvalue { ptr, i64 } %4, 0
  %_3.1 = extractvalue { ptr, i64 } %4, 1
  %_5 = invoke fastcc noundef i64 @"_ZN4core5slice29_$LT$impl$u20$$u5b$T$u5d$$GT$3len17h4d61d973f4c88adfE"(i64 noundef %_3.1)
          to label %bb2 unwind label %cleanup

bb2:                                              ; preds = %bb1
  %10 = icmp eq i64 %_5, 0
  br i1 %10, label %bb3, label %bb4

bb3:                                              ; preds = %bb2
  invoke fastcc void @_ZN5alloc6string6String3new17h1209cd5eeb1f75edE(ptr noalias nocapture noundef sret(%"alloc::string::String") dereferenceable(24) %0)
          to label %bb10 unwind label %cleanup

bb4:                                              ; preds = %bb2
  call void @llvm.lifetime.start.p0(i64 24, ptr %buffer)
  %_8 = invoke fastcc noundef i64 @"_ZN4core5slice29_$LT$impl$u20$$u5b$T$u5d$$GT$3len17h4d61d973f4c88adfE"(i64 noundef %_3.1)
          to label %bb5 unwind label %cleanup

bb5:                                              ; preds = %bb4
  invoke fastcc void @_ZN5alloc6string6String13with_capacity17hb0a00d5a378c4e44E(ptr noalias nocapture noundef sret(%"alloc::string::String") dereferenceable(24) %buffer, i64 noundef %_8)
          to label %bb6 unwind label %cleanup

bb6:                                              ; preds = %bb5
  %_11 = invoke noundef zeroext i1 @_ZN10substreams3hex15write_lower_hex17h1f61f231cfac79e2E(ptr noalias noundef nonnull readonly align 1 %_3.0, i64 noundef %_3.1, ptr noalias noundef align 8 dereferenceable(24) %buffer)
          to label %bb7 unwind label %cleanup1

cleanup1:                                         ; preds = %bb7, %bb6
  %11 = landingpad { ptr, i32 }
          cleanup
  %12 = extractvalue { ptr, i32 } %11, 0
  %13 = extractvalue { ptr, i32 } %11, 1
  invoke void @"_ZN4core3ptr42drop_in_place$LT$alloc..string..String$GT$17h21c9543bd1b9d18cE"(ptr noundef %buffer) #20
          to label %bb12 unwind label %abort

bb7:                                              ; preds = %bb6
  invoke fastcc void @"_ZN4core6result19Result$LT$T$C$E$GT$6expect17hf0e2d0b77913a08aE"(i1 noundef zeroext %_11)
          to label %bb8 unwind label %cleanup1

bb8:                                              ; preds = %bb7
  call void @llvm.memcpy.p0.p0.i64(ptr align 8 %0, ptr align 8 %buffer, i64 24, i1 false)
  call void @llvm.lifetime.end.p0(i64 24, ptr %buffer)
  br label %bb10

abort:                                            ; preds = %cleanup1
  %14 = landingpad { ptr, i32 }
          cleanup
  call void @_ZN4core9panicking19panic_cannot_unwind17h567eff7135bb91deE() #21
  unreachable

bb10:                                             ; preds = %bb8, %bb3
  ret void
}

declare i32 @rust_eh_personality(...) unnamed_addr #2

; Function Attrs: inlinehint optsize uwtable
define internal fastcc { ptr, i64 } @"_ZN55_$LT$$RF$T$u20$as$u20$core..convert..AsRef$LT$U$GT$$GT$6as_ref17h1e3ad302348d7260E"(ptr noalias noundef readonly align 8 dereferenceable(16) %self) unnamed_addr #1 {
start:
  %_3.0 = load ptr, ptr %self, align 8, !nonnull !1, !align !3, !noundef !1
  %0 = getelementptr inbounds { ptr, i64 }, ptr %self, i32 0, i32 1
  %_3.1 = load i64, ptr %0, align 8, !noundef !1
  %1 = call fastcc { ptr, i64 } @"_ZN71_$LT$$u5b$T$u5d$$u20$as$u20$core..convert..AsRef$LT$$u5b$T$u5d$$GT$$GT$6as_ref17h8b7f6be8e65fbdb7E"(ptr noalias noundef nonnull readonly align 1 %_3.0, i64 noundef %_3.1)
  %2 = extractvalue { ptr, i64 } %1, 0
  %3 = extractvalue { ptr, i64 } %1, 1
  ret { ptr, i64 } %1
}

; Function Attrs: inlinehint optsize uwtable
define internal fastcc noundef i64 @"_ZN4core5slice29_$LT$impl$u20$$u5b$T$u5d$$GT$3len17h4d61d973f4c88adfE"(i64 noundef %self.1) unnamed_addr #1 {
start:
  ret i64 %self.1
}

; Function Attrs: inlinehint optsize uwtable
define internal fastcc void @_ZN5alloc6string6String3new17h1209cd5eeb1f75edE(ptr noalias nocapture noundef sret(%"alloc::string::String") dereferenceable(24) %0) unnamed_addr #1 {
start:
  store i64 0, ptr %0, align 8
  %_1.sroa.4.0..sroa_idx = getelementptr inbounds i8, ptr %0, i64 8
  store ptr inttoptr (i64 1 to ptr), ptr %_1.sroa.4.0..sroa_idx, align 8
  %_1.sroa.5.0..sroa_idx = getelementptr inbounds i8, ptr %0, i64 16
  store i64 0, ptr %_1.sroa.5.0..sroa_idx, align 8
  ret void
}

; Function Attrs: nocallback nofree nosync nounwind willreturn memory(argmem: readwrite)
declare void @llvm.lifetime.start.p0(i64 immarg, ptr nocapture) #3

; Function Attrs: inlinehint optsize uwtable
define internal fastcc void @_ZN5alloc6string6String13with_capacity17hb0a00d5a378c4e44E(ptr noalias nocapture noundef sret(%"alloc::string::String") dereferenceable(24) %0, i64 noundef %capacity) unnamed_addr #1 {
start:
  %1 = call { i64, ptr } @"_ZN5alloc7raw_vec19RawVec$LT$T$C$A$GT$11allocate_in17h44600a47f23a9d58E"(i64 noundef %capacity, i1 noundef zeroext false)
  %_6.0 = extractvalue { i64, ptr } %1, 0
  %_6.1 = extractvalue { i64, ptr } %1, 1
  store i64 %_6.0, ptr %0, align 8
  %_2.sroa.4.0..sroa_idx = getelementptr inbounds i8, ptr %0, i64 8
  store ptr %_6.1, ptr %_2.sroa.4.0..sroa_idx, align 8
  %_2.sroa.5.0..sroa_idx = getelementptr inbounds i8, ptr %0, i64 16
  store i64 0, ptr %_2.sroa.5.0..sroa_idx, align 8
  ret void
}

; Function Attrs: optsize uwtable
define noundef zeroext i1 @_ZN10substreams3hex15write_lower_hex17h1f61f231cfac79e2E(ptr noalias noundef nonnull readonly align 1 %input.0, i64 noundef %input.1, ptr noalias noundef align 8 dereferenceable(24) %0) unnamed_addr #0 personality ptr @rust_eh_personality {
start:
  %_15 = alloca [256 x { ptr, i64 }], align 8
  %iter = alloca { ptr, ptr }, align 8
  %w = alloca ptr, align 8
  store ptr %0, ptr %w, align 8
  %1 = invoke { ptr, ptr } @"_ZN4core5slice4iter87_$LT$impl$u20$core..iter..traits..collect..IntoIterator$u20$for$u20$$RF$$u5b$T$u5d$$GT$9into_iter17hf0f1ca8d052e3e4fE"(ptr noalias noundef nonnull readonly align 1 %input.0, i64 noundef %input.1)
          to label %bb1 unwind label %cleanup

cleanup:                                          ; preds = %bb12, %bb8, %bb4, %bb2, %start
  %2 = landingpad { ptr, i32 }
          cleanup
  %3 = extractvalue { ptr, i32 } %2, 0
  %4 = extractvalue { ptr, i32 } %2, 1
  resume { ptr, i32 } %2

bb1:                                              ; preds = %start
  %_3.0 = extractvalue { ptr, ptr } %1, 0
  %_3.1 = extractvalue { ptr, ptr } %1, 1
  call void @llvm.lifetime.start.p0(i64 16, ptr %iter)
  store ptr %_3.0, ptr %iter, align 8
  %5 = getelementptr inbounds { ptr, ptr }, ptr %iter, i32 0, i32 1
  store ptr %_3.1, ptr %5, align 8
  br label %bb2

bb2:                                              ; preds = %bb10, %bb1
  %6 = invoke fastcc noundef align 1 dereferenceable_or_null(1) ptr @"_ZN91_$LT$core..slice..iter..Iter$LT$T$GT$$u20$as$u20$core..iter..traits..iterator..Iterator$GT$4next17h7a6acdd384a1543eE"(ptr noalias noundef align 8 dereferenceable(16) %iter)
          to label %bb3 unwind label %cleanup

bb3:                                              ; preds = %bb2
  %7 = ptrtoint ptr %6 to i64
  %8 = icmp eq i64 %7, 0
  br i1 %8, label %bb6, label %bb4

bb6:                                              ; preds = %bb3
  call void @llvm.lifetime.end.p0(i64 16, ptr %iter)
  br label %bb14

bb4:                                              ; preds = %bb3
  %9 = icmp ne ptr %6, null
  call void @llvm.assume(i1 %9)
  call void @llvm.lifetime.start.p0(i64 4096, ptr %_15)
  call void @llvm.memcpy.p0.p0.i64(ptr align 8 %_15, ptr align 8 @anon.1054e9c2a7c8780f9e0bef1bd85a4552.0, i64 4096, i1 false)
  %_17 = load i8, ptr %6, align 1, !noundef !1
  %_16 = zext i8 %_17 to i64
  %10 = getelementptr inbounds [256 x { ptr, i64 }], ptr %_15, i64 0, i64 %_16
  %_24.0 = load ptr, ptr %10, align 8, !nonnull !1, !align !3, !noundef !1
  %11 = getelementptr inbounds { ptr, i64 }, ptr %10, i32 0, i32 1
  %_24.1 = load i64, ptr %11, align 8, !noundef !1
  %_12 = invoke noundef zeroext i1 @"_ZN50_$LT$$RF$mut$u20$W$u20$as$u20$core..fmt..Write$GT$9write_str17h28f8bc2ac6aa5b4cE"(ptr noalias noundef align 8 dereferenceable(8) %w, ptr noalias noundef nonnull readonly align 1 %_24.0, i64 noundef %_24.1)
          to label %bb8 unwind label %cleanup

bb8:                                              ; preds = %bb4
  %12 = invoke fastcc noundef zeroext i1 @"_ZN79_$LT$core..result..Result$LT$T$C$E$GT$$u20$as$u20$core..ops..try_trait..Try$GT$6branch17h85f2f1d1ff862cfcE"(i1 noundef zeroext %_12)
          to label %bb9 unwind label %cleanup

bb9:                                              ; preds = %bb8
  %13 = zext i1 %12 to i8
  %_20 = zext i1 %12 to i64
  %switch = icmp ult i64 %_20, 1
  br i1 %switch, label %bb10, label %bb12

bb10:                                             ; preds = %bb9
  call void @llvm.lifetime.end.p0(i64 4096, ptr %_15)
  br label %bb2

bb12:                                             ; preds = %bb9
  invoke fastcc void @"_ZN153_$LT$core..result..Result$LT$T$C$F$GT$$u20$as$u20$core..ops..try_trait..FromResidual$LT$core..result..Result$LT$core..convert..Infallible$C$E$GT$$GT$$GT$13from_residual17h7591c6ef98044640E"()
          to label %bb13 unwind label %cleanup

bb13:                                             ; preds = %bb12
  call void @llvm.lifetime.end.p0(i64 4096, ptr %_15)
  call void @llvm.lifetime.end.p0(i64 16, ptr %iter)
  br label %bb14

bb14:                                             ; preds = %bb13, %bb6
  %.0 = phi i8 [ 0, %bb6 ], [ 1, %bb13 ]
  %14 = trunc i8 %.0 to i1
  ret i1 %14
}

; Function Attrs: optsize uwtable
define internal void @"_ZN4core3ptr42drop_in_place$LT$alloc..string..String$GT$17h21c9543bd1b9d18cE"(ptr noundef %_1) unnamed_addr #0 {
start:
  call fastcc void @"_ZN4core3ptr46drop_in_place$LT$alloc..vec..Vec$LT$u8$GT$$GT$17h1abcdd8151e8740dE"(ptr noundef %_1)
  ret void
}

; Function Attrs: inlinehint optsize uwtable
define internal fastcc void @"_ZN4core6result19Result$LT$T$C$E$GT$6expect17hf0e2d0b77913a08aE"(i1 noundef zeroext %0) unnamed_addr #1 personality ptr @rust_eh_personality {
start:
  %e = alloca %"core::fmt::Error", align 1
  %1 = zext i1 %0 to i8
  %_3 = zext i1 %0 to i64
  %switch = icmp ult i64 %_3, 1
  br i1 %switch, label %bb3, label %bb1

bb3:                                              ; preds = %start
  ret void

bb1:                                              ; preds = %start
  invoke fastcc void @_ZN4core6result13unwrap_failed17hf18393b9281fdb6bE() #22
          to label %unreachable unwind label %cleanup

cleanup:                                          ; preds = %bb1
  %2 = landingpad { ptr, i32 }
          cleanup
  %3 = extractvalue { ptr, i32 } %2, 0
  %4 = extractvalue { ptr, i32 } %2, 1
  resume { ptr, i32 } %2

unreachable:                                      ; preds = %bb1
  unreachable
}

; Function Attrs: nocallback nofree nounwind willreturn memory(argmem: readwrite)
declare void @llvm.memcpy.p0.p0.i64(ptr noalias nocapture writeonly, ptr noalias nocapture readonly, i64, i1 immarg) #4

; Function Attrs: nocallback nofree nosync nounwind willreturn memory(argmem: readwrite)
declare void @llvm.lifetime.end.p0(i64 immarg, ptr nocapture) #3

; Function Attrs: inlinehint noreturn nounwind optsize uwtable
declare void @_ZN4core9panicking19panic_cannot_unwind17h567eff7135bb91deE() unnamed_addr #5

; Function Attrs: cold inlinehint noreturn optsize uwtable
define internal fastcc void @_ZN4core6result13unwrap_failed17hf18393b9281fdb6bE() unnamed_addr #6 {
start:
  call fastcc void @_ZN4core9panicking5panic17h7d3a285aef4348ddE() #22
  unreachable
}

; Function Attrs: inlinehint noreturn optsize uwtable
define internal fastcc void @_ZN4core9panicking5panic17h7d3a285aef4348ddE() unnamed_addr #7 {
start:
  call void @llvm.trap()
  unreachable
}

; Function Attrs: cold noreturn nounwind
declare void @llvm.trap() #8

; Function Attrs: optsize uwtable
define internal fastcc void @"_ZN4core3ptr46drop_in_place$LT$alloc..vec..Vec$LT$u8$GT$$GT$17h1abcdd8151e8740dE"(ptr noundef %_1) unnamed_addr #0 personality ptr @rust_eh_personality {
start:
  invoke void @"_ZN70_$LT$alloc..vec..Vec$LT$T$C$A$GT$$u20$as$u20$core..ops..drop..Drop$GT$4drop17h7e8091cd5bc9a99eE"(ptr noalias noundef align 8 dereferenceable(24) %_1)
          to label %bb4 unwind label %cleanup

cleanup:                                          ; preds = %start
  %0 = landingpad { ptr, i32 }
          cleanup
  %1 = extractvalue { ptr, i32 } %0, 0
  %2 = extractvalue { ptr, i32 } %0, 1
  invoke fastcc void @"_ZN4core3ptr53drop_in_place$LT$alloc..raw_vec..RawVec$LT$u8$GT$$GT$17hce8bfcab4c6ea78eE"(ptr noundef %_1) #20
          to label %bb1 unwind label %abort

bb4:                                              ; preds = %start
  call fastcc void @"_ZN4core3ptr53drop_in_place$LT$alloc..raw_vec..RawVec$LT$u8$GT$$GT$17hce8bfcab4c6ea78eE"(ptr noundef %_1)
  ret void

abort:                                            ; preds = %cleanup
  %3 = landingpad { ptr, i32 }
          cleanup
  call void @_ZN4core9panicking19panic_cannot_unwind17h567eff7135bb91deE() #21
  unreachable

bb1:                                              ; preds = %cleanup
  resume { ptr, i32 } %0
}

; Function Attrs: optsize uwtable
declare void @"_ZN70_$LT$alloc..vec..Vec$LT$T$C$A$GT$$u20$as$u20$core..ops..drop..Drop$GT$4drop17h7e8091cd5bc9a99eE"(ptr noalias noundef align 8 dereferenceable(24)) unnamed_addr #0

; Function Attrs: optsize uwtable
define internal fastcc void @"_ZN4core3ptr53drop_in_place$LT$alloc..raw_vec..RawVec$LT$u8$GT$$GT$17hce8bfcab4c6ea78eE"(ptr noundef %_1) unnamed_addr #0 {
start:
  call void @"_ZN77_$LT$alloc..raw_vec..RawVec$LT$T$C$A$GT$$u20$as$u20$core..ops..drop..Drop$GT$4drop17h82d6b851d203fac8E"(ptr noalias noundef align 8 dereferenceable(16) %_1)
  ret void
}

; Function Attrs: optsize uwtable
declare void @"_ZN77_$LT$alloc..raw_vec..RawVec$LT$T$C$A$GT$$u20$as$u20$core..ops..drop..Drop$GT$4drop17h82d6b851d203fac8E"(ptr noalias noundef align 8 dereferenceable(16)) unnamed_addr #0

; Function Attrs: optsize uwtable
declare { ptr, ptr } @"_ZN4core5slice4iter87_$LT$impl$u20$core..iter..traits..collect..IntoIterator$u20$for$u20$$RF$$u5b$T$u5d$$GT$9into_iter17hf0f1ca8d052e3e4fE"(ptr noalias noundef nonnull readonly align 1, i64 noundef) unnamed_addr #0

; Function Attrs: inlinehint optsize uwtable
define internal fastcc noundef align 1 dereferenceable_or_null(1) ptr @"_ZN91_$LT$core..slice..iter..Iter$LT$T$GT$$u20$as$u20$core..iter..traits..iterator..Iterator$GT$4next17h7a6acdd384a1543eE"(ptr noalias noundef align 8 dereferenceable(16) %self) unnamed_addr #1 {
start:
  %0 = getelementptr inbounds { ptr, ptr }, ptr %self, i32 0, i32 1
  %self1 = load ptr, ptr %0, align 8, !nonnull !1, !noundef !1
  %1 = ptrtoint ptr %self1 to i64
  %self2 = load ptr, ptr %self, align 8, !noundef !1
  %2 = ptrtoint ptr %self2 to i64
  %_8 = icmp eq i64 %2, 0
  %_7 = xor i1 %_8, true
  call void @llvm.assume(i1 %_7)
  %_10 = icmp eq ptr %self1, %self2
  br i1 %_10, label %bb5, label %bb4

bb4:                                              ; preds = %start
  %3 = getelementptr inbounds i8, ptr %self1, i64 1
  store ptr %3, ptr %0, align 8
  br label %bb5

bb5:                                              ; preds = %bb4, %start
  %.0 = phi ptr [ %self1, %bb4 ], [ null, %start ]
  ret ptr %.0
}

; Function Attrs: nocallback nofree nosync nounwind willreturn memory(inaccessiblemem: readwrite)
declare void @llvm.assume(i1 noundef) #9

; Function Attrs: optsize uwtable
declare noundef zeroext i1 @"_ZN50_$LT$$RF$mut$u20$W$u20$as$u20$core..fmt..Write$GT$9write_str17h28f8bc2ac6aa5b4cE"(ptr noalias noundef align 8 dereferenceable(8), ptr noalias noundef nonnull readonly align 1, i64 noundef) unnamed_addr #0

; Function Attrs: inlinehint optsize uwtable
define internal fastcc noundef zeroext i1 @"_ZN79_$LT$core..result..Result$LT$T$C$E$GT$$u20$as$u20$core..ops..try_trait..Try$GT$6branch17h85f2f1d1ff862cfcE"(i1 noundef zeroext %0) unnamed_addr #1 {
start:
  %1 = zext i1 %0 to i8
  %_2 = zext i1 %0 to i64
  %switch = icmp ult i64 %_2, 1
  %. = select i1 %switch, i8 0, i8 1
  %2 = trunc i8 %. to i1
  ret i1 %2
}

; Function Attrs: inlinehint optsize uwtable
define internal fastcc void @"_ZN153_$LT$core..result..Result$LT$T$C$F$GT$$u20$as$u20$core..ops..try_trait..FromResidual$LT$core..result..Result$LT$core..convert..Infallible$C$E$GT$$GT$$GT$13from_residual17h7591c6ef98044640E"() unnamed_addr #1 {
start:
  call fastcc void @"_ZN50_$LT$T$u20$as$u20$core..convert..From$LT$T$GT$$GT$4from17hd19584a142336bfcE"()
  ret void
}

; Function Attrs: alwaysinline optsize uwtable
define internal fastcc void @"_ZN50_$LT$T$u20$as$u20$core..convert..From$LT$T$GT$$GT$4from17hd19584a142336bfcE"() unnamed_addr #10 {
start:
  ret void
}

; Function Attrs: optsize uwtable
declare { i64, ptr } @"_ZN5alloc7raw_vec19RawVec$LT$T$C$A$GT$11allocate_in17h44600a47f23a9d58E"(i64 noundef, i1 noundef zeroext) unnamed_addr #0

; Function Attrs: alwaysinline optsize uwtable
define internal fastcc { ptr, i64 } @"_ZN71_$LT$$u5b$T$u5d$$u20$as$u20$core..convert..AsRef$LT$$u5b$T$u5d$$GT$$GT$6as_ref17h8b7f6be8e65fbdb7E"(ptr noalias noundef nonnull readonly align 1 %self.0, i64 noundef %self.1) unnamed_addr #10 {
start:
  %0 = insertvalue { ptr, i64 } undef, ptr %self.0, 0
  %1 = insertvalue { ptr, i64 } %0, i64 %self.1, 1
  ret { ptr, i64 } %1
}

; Function Attrs: optsize uwtable
declare { ptr, i64 } @"_ZN88_$LT$alloc..vec..Vec$LT$T$C$A$GT$$u20$as$u20$core..convert..AsRef$LT$$u5b$T$u5d$$GT$$GT$6as_ref17hbefe34232fff3ce8E"(ptr noalias noundef readonly align 8 dereferenceable(24)) unnamed_addr #0

; Function Attrs: optsize uwtable
define void @_ZN10substreams5proto10decode_ptr17heffaab7241973ca5E(ptr noalias nocapture noundef sret(%"core::result::Result<substreams_ethereum_core::pb::generated::sf::ethereum::r#type::v2::Block, prost::error::DecodeError>") dereferenceable(560) %obj, ptr noundef %ptr, i64 noundef %size) unnamed_addr #0 personality ptr @rust_eh_personality {
start:
  %_12 = alloca %"alloc::vec::Vec<u8>", align 8
  %input_data = alloca %"alloc::vec::Vec<u8>", align 8
  call void @llvm.lifetime.start.p0(i64 24, ptr %input_data)
  call fastcc void @"_ZN5alloc3vec12Vec$LT$T$GT$14from_raw_parts17h809277cae6ea29a3E"(ptr noalias nocapture noundef sret(%"alloc::vec::Vec<u8>") dereferenceable(24) %input_data, ptr noundef %ptr, i64 noundef %size, i64 noundef %size)
  %0 = invoke fastcc { ptr, i64 } @"_ZN81_$LT$alloc..vec..Vec$LT$T$C$A$GT$$u20$as$u20$core..ops..index..Index$LT$I$GT$$GT$5index17h612b9010de409497E"(ptr noalias noundef readonly align 8 dereferenceable(24) %input_data)
          to label %bb2 unwind label %cleanup

bb8:                                              ; preds = %cleanup1, %cleanup
  %.sroa.6.0 = phi i32 [ %7, %cleanup1 ], [ %4, %cleanup ]
  %.sroa.0.0 = phi ptr [ %6, %cleanup1 ], [ %3, %cleanup ]
  %_13.0 = phi i8 [ 0, %cleanup1 ], [ 1, %cleanup ]
  %1 = trunc i8 %_13.0 to i1
  br i1 %1, label %bb7, label %bb6

cleanup:                                          ; preds = %bb2, %start
  %2 = landingpad { ptr, i32 }
          cleanup
  %3 = extractvalue { ptr, i32 } %2, 0
  %4 = extractvalue { ptr, i32 } %2, 1
  br label %bb8

bb2:                                              ; preds = %start
  %_8.0 = extractvalue { ptr, i64 } %0, 0
  %_8.1 = extractvalue { ptr, i64 } %0, 1
  invoke void @_ZN5prost7message7Message6decode17ha02b125fd4834ec9E(ptr noalias nocapture noundef sret(%"core::result::Result<substreams_ethereum_core::pb::generated::sf::ethereum::r#type::v2::Block, prost::error::DecodeError>") dereferenceable(560) %obj, ptr noalias noundef nonnull readonly align 1 %_8.0, i64 noundef %_8.1)
          to label %bb3 unwind label %cleanup

bb3:                                              ; preds = %bb2
  call void @llvm.lifetime.start.p0(i64 24, ptr %_12)
  call void @llvm.memcpy.p0.p0.i64(ptr align 8 %_12, ptr align 8 %input_data, i64 24, i1 false)
  invoke fastcc void @_ZN4core3mem6forget17h715ba3ad23ae9421E()
          to label %bb4 unwind label %cleanup1

cleanup1:                                         ; preds = %bb3
  %5 = landingpad { ptr, i32 }
          cleanup
  %6 = extractvalue { ptr, i32 } %5, 0
  %7 = extractvalue { ptr, i32 } %5, 1
  invoke fastcc void @"_ZN4core3ptr147drop_in_place$LT$core..result..Result$LT$substreams_ethereum_core..pb..generated..sf..ethereum..type..v2..Block$C$prost..error..DecodeError$GT$$GT$17h994c9e1797045842E"(ptr noundef %obj) #20
          to label %bb8 unwind label %abort

bb4:                                              ; preds = %bb3
  call void @llvm.lifetime.end.p0(i64 24, ptr %_12)
  call void @llvm.lifetime.end.p0(i64 24, ptr %input_data)
  ret void

abort:                                            ; preds = %bb7, %cleanup1
  %8 = landingpad { ptr, i32 }
          cleanup
  call void @_ZN4core9panicking19panic_cannot_unwind17h567eff7135bb91deE() #21
  unreachable

bb6:                                              ; preds = %bb7, %bb8
  %9 = insertvalue { ptr, i32 } undef, ptr %.sroa.0.0, 0
  %10 = insertvalue { ptr, i32 } %9, i32 %.sroa.6.0, 1
  resume { ptr, i32 } %10

bb7:                                              ; preds = %bb8
  invoke fastcc void @"_ZN4core3ptr46drop_in_place$LT$alloc..vec..Vec$LT$u8$GT$$GT$17h1abcdd8151e8740dE"(ptr noundef %input_data) #20
          to label %bb6 unwind label %abort
}

; Function Attrs: inlinehint optsize uwtable
define internal fastcc void @"_ZN5alloc3vec12Vec$LT$T$GT$14from_raw_parts17h809277cae6ea29a3E"(ptr noalias nocapture noundef sret(%"alloc::vec::Vec<u8>") dereferenceable(24) %0, ptr noundef %ptr, i64 noundef %length, i64 noundef %capacity) unnamed_addr #1 {
start:
  %1 = icmp ne ptr %ptr, null
  call void @llvm.assume(i1 %1)
  store i64 %capacity, ptr %0, align 8
  %2 = getelementptr inbounds { i64, ptr }, ptr %0, i32 0, i32 1
  store ptr %ptr, ptr %2, align 8
  %3 = getelementptr inbounds %"alloc::vec::Vec<u8>", ptr %0, i32 0, i32 1
  store i64 %length, ptr %3, align 8
  ret void
}

; Function Attrs: inlinehint optsize uwtable
define internal fastcc { ptr, i64 } @"_ZN81_$LT$alloc..vec..Vec$LT$T$C$A$GT$$u20$as$u20$core..ops..index..Index$LT$I$GT$$GT$5index17h612b9010de409497E"(ptr noalias noundef readonly align 8 dereferenceable(24) %self) unnamed_addr #1 personality ptr @rust_eh_personality {
start:
  %0 = invoke fastcc { ptr, i64 } @"_ZN72_$LT$alloc..vec..Vec$LT$T$C$A$GT$$u20$as$u20$core..ops..deref..Deref$GT$5deref17haeda4d7551c23d8dE"(ptr noalias noundef readonly align 8 dereferenceable(24) %self)
          to label %bb1 unwind label %cleanup

cleanup:                                          ; preds = %bb1, %start
  %1 = landingpad { ptr, i32 }
          cleanup
  %2 = extractvalue { ptr, i32 } %1, 0
  %3 = extractvalue { ptr, i32 } %1, 1
  resume { ptr, i32 } %1

bb1:                                              ; preds = %start
  %_5.0 = extractvalue { ptr, i64 } %0, 0
  %_5.1 = extractvalue { ptr, i64 } %0, 1
  %4 = invoke fastcc { ptr, i64 } @"_ZN97_$LT$core..ops..range..RangeFull$u20$as$u20$core..slice..index..SliceIndex$LT$$u5b$T$u5d$$GT$$GT$5index17h7820fc9f2635c221E"(ptr noalias noundef nonnull readonly align 1 %_5.0, i64 noundef %_5.1)
          to label %bb5 unwind label %cleanup

bb5:                                              ; preds = %bb1
  %5 = extractvalue { ptr, i64 } %4, 0
  %6 = extractvalue { ptr, i64 } %4, 1
  ret { ptr, i64 } %4
}

; Function Attrs: optsize uwtable
define void @_ZN5prost7message7Message6decode17ha02b125fd4834ec9E(ptr noalias nocapture noundef sret(%"core::result::Result<substreams_ethereum_core::pb::generated::sf::ethereum::r#type::v2::Block, prost::error::DecodeError>") dereferenceable(560) %0, ptr noalias noundef nonnull readonly align 1 %1, i64 noundef %2) unnamed_addr #0 personality ptr @rust_eh_personality {
start:
  %_7 = alloca %"[closure@<substreams_ethereum_core::pb::generated::sf::ethereum::r#type::v2::Block as prost::message::Message>::decode<&[u8]>::{closure#0}]", align 8
  %message = alloca %"substreams_ethereum_core::pb::generated::sf::ethereum::r#type::v2::Block", align 8
  %buf = alloca { ptr, i64 }, align 8
  store ptr %1, ptr %buf, align 8
  %3 = getelementptr inbounds { ptr, i64 }, ptr %buf, i32 0, i32 1
  store i64 %2, ptr %3, align 8
  call void @llvm.lifetime.start.p0(i64 560, ptr %message)
  invoke void @"_ZN113_$LT$substreams_ethereum_core..pb..generated..sf..ethereum..type..v2..Block$u20$as$u20$core..default..Default$GT$7default17h33c73c1fc36af88eE"(ptr noalias nocapture noundef sret(%"substreams_ethereum_core::pb::generated::sf::ethereum::r#type::v2::Block") dereferenceable(560) %message)
          to label %bb1 unwind label %cleanup

bb5:                                              ; preds = %bb7, %cleanup1, %cleanup
  %.sroa.6.0 = phi i32 [ %11, %bb7 ], [ %11, %cleanup1 ], [ %8, %cleanup ]
  %.sroa.0.0 = phi ptr [ %10, %bb7 ], [ %10, %cleanup1 ], [ %7, %cleanup ]
  %4 = insertvalue { ptr, i32 } undef, ptr %.sroa.0.0, 0
  %5 = insertvalue { ptr, i32 } %4, i32 %.sroa.6.0, 1
  resume { ptr, i32 } %5

cleanup:                                          ; preds = %start
  %6 = landingpad { ptr, i32 }
          cleanup
  %7 = extractvalue { ptr, i32 } %6, 0
  %8 = extractvalue { ptr, i32 } %6, 1
  br label %bb5

bb1:                                              ; preds = %start
  %_3 = invoke noundef align 8 ptr @_ZN5prost7message7Message5merge17h027ac0a3f35605b6E(ptr noalias noundef align 8 dereferenceable(560) %message, ptr noalias noundef align 8 dereferenceable(16) %buf)
          to label %bb2 unwind label %cleanup1

cleanup1:                                         ; preds = %bb2, %bb1
  %_8.0 = phi i8 [ 0, %bb2 ], [ 1, %bb1 ]
  %9 = landingpad { ptr, i32 }
          cleanup
  %10 = extractvalue { ptr, i32 } %9, 0
  %11 = extractvalue { ptr, i32 } %9, 1
  %12 = trunc i8 %_8.0 to i1
  br i1 %12, label %bb7, label %bb5

bb2:                                              ; preds = %bb1
  call void @llvm.lifetime.start.p0(i64 560, ptr %_7)
  call void @llvm.memcpy.p0.p0.i64(ptr align 8 %_7, ptr align 8 %message, i64 560, i1 false)
  invoke fastcc void @"_ZN4core6result19Result$LT$T$C$E$GT$3map17hf7751f81a23d21bfE"(ptr noalias nocapture noundef sret(%"core::result::Result<substreams_ethereum_core::pb::generated::sf::ethereum::r#type::v2::Block, prost::error::DecodeError>") dereferenceable(560) %0, ptr noalias noundef align 8 %_3, ptr noalias nocapture noundef dereferenceable(560) %_7)
          to label %bb3 unwind label %cleanup1

bb3:                                              ; preds = %bb2
  call void @llvm.lifetime.end.p0(i64 560, ptr %_7)
  call void @llvm.lifetime.end.p0(i64 560, ptr %message)
  ret void

bb7:                                              ; preds = %cleanup1
  invoke fastcc void @"_ZN4core3ptr91drop_in_place$LT$substreams_ethereum_core..pb..generated..sf..ethereum..type..v2..Block$GT$17h30492cccc46db373E"(ptr noundef %message) #20
          to label %bb5 unwind label %abort

abort:                                            ; preds = %bb7
  %13 = landingpad { ptr, i32 }
          cleanup
  call void @_ZN4core9panicking19panic_cannot_unwind17h567eff7135bb91deE() #21
  unreachable
}

; Function Attrs: inlinehint optsize uwtable
define internal fastcc void @_ZN4core3mem6forget17h715ba3ad23ae9421E() unnamed_addr #1 {
start:
  ret void
}

; Function Attrs: optsize uwtable
define internal fastcc void @"_ZN4core3ptr147drop_in_place$LT$core..result..Result$LT$substreams_ethereum_core..pb..generated..sf..ethereum..type..v2..Block$C$prost..error..DecodeError$GT$$GT$17h994c9e1797045842E"(ptr noundef %_1) unnamed_addr #0 {
start:
  %0 = getelementptr inbounds %"core::result::Result<substreams_ethereum_core::pb::generated::sf::ethereum::r#type::v2::Block, prost::error::DecodeError>", ptr %_1, i32 0, i32 1
  %1 = load i64, ptr %0, align 8, !range !4, !noundef !1
  %2 = icmp eq i64 %1, 3
  %_2 = select i1 %2, i64 1, i64 0
  %3 = icmp eq i64 %_2, 0
  br i1 %3, label %bb2, label %bb3

bb2:                                              ; preds = %start
  call fastcc void @"_ZN4core3ptr91drop_in_place$LT$substreams_ethereum_core..pb..generated..sf..ethereum..type..v2..Block$GT$17h30492cccc46db373E"(ptr noundef %_1)
  br label %bb1

bb3:                                              ; preds = %start
  call fastcc void @"_ZN4core3ptr46drop_in_place$LT$prost..error..DecodeError$GT$17h9163871017093394E"(ptr noundef %_1)
  br label %bb1

bb1:                                              ; preds = %bb3, %bb2
  ret void
}

; Function Attrs: optsize uwtable
define internal fastcc void @"_ZN4core3ptr91drop_in_place$LT$substreams_ethereum_core..pb..generated..sf..ethereum..type..v2..Block$GT$17h30492cccc46db373E"(ptr noundef %_1) unnamed_addr #0 personality ptr @rust_eh_personality {
start:
  %0 = getelementptr inbounds %"substreams_ethereum_core::pb::generated::sf::ethereum::r#type::v2::Block", ptr %_1, i32 0, i32 3
  invoke fastcc void @"_ZN4core3ptr46drop_in_place$LT$alloc..vec..Vec$LT$u8$GT$$GT$17h1abcdd8151e8740dE"(ptr noundef %0)
          to label %bb12 unwind label %cleanup

cleanup:                                          ; preds = %start
  %1 = landingpad { ptr, i32 }
          cleanup
  %2 = extractvalue { ptr, i32 } %1, 0
  %3 = extractvalue { ptr, i32 } %1, 1
  invoke fastcc void @"_ZN4core3ptr125drop_in_place$LT$core..option..Option$LT$substreams_ethereum_core..pb..generated..sf..ethereum..type..v2..BlockHeader$GT$$GT$17h497cef06ced79688E"(ptr noundef %_1) #20
          to label %bb6 unwind label %abort

bb12:                                             ; preds = %start
  invoke fastcc void @"_ZN4core3ptr125drop_in_place$LT$core..option..Option$LT$substreams_ethereum_core..pb..generated..sf..ethereum..type..v2..BlockHeader$GT$$GT$17h497cef06ced79688E"(ptr noundef %_1)
          to label %bb11 unwind label %cleanup1

abort:                                            ; preds = %bb3, %bb4, %bb5, %bb6, %cleanup
  %4 = landingpad { ptr, i32 }
          cleanup
  call void @_ZN4core9panicking19panic_cannot_unwind17h567eff7135bb91deE() #21
  unreachable

bb6:                                              ; preds = %cleanup1, %cleanup
  %.sroa.12.0 = phi i32 [ %8, %cleanup1 ], [ %3, %cleanup ]
  %.sroa.0.0 = phi ptr [ %7, %cleanup1 ], [ %2, %cleanup ]
  %5 = getelementptr inbounds %"substreams_ethereum_core::pb::generated::sf::ethereum::r#type::v2::Block", ptr %_1, i32 0, i32 4
  invoke fastcc void @"_ZN4core3ptr120drop_in_place$LT$alloc..vec..Vec$LT$substreams_ethereum_core..pb..generated..sf..ethereum..type..v2..BlockHeader$GT$$GT$17h2fee24f25346a9aaE"(ptr noundef %5) #20
          to label %bb5 unwind label %abort

cleanup1:                                         ; preds = %bb12
  %6 = landingpad { ptr, i32 }
          cleanup
  %7 = extractvalue { ptr, i32 } %6, 0
  %8 = extractvalue { ptr, i32 } %6, 1
  br label %bb6

bb11:                                             ; preds = %bb12
  %9 = getelementptr inbounds %"substreams_ethereum_core::pb::generated::sf::ethereum::r#type::v2::Block", ptr %_1, i32 0, i32 4
  invoke fastcc void @"_ZN4core3ptr120drop_in_place$LT$alloc..vec..Vec$LT$substreams_ethereum_core..pb..generated..sf..ethereum..type..v2..BlockHeader$GT$$GT$17h2fee24f25346a9aaE"(ptr noundef %9)
          to label %bb10 unwind label %cleanup2

bb5:                                              ; preds = %cleanup2, %bb6
  %.sroa.12.1 = phi i32 [ %13, %cleanup2 ], [ %.sroa.12.0, %bb6 ]
  %.sroa.0.1 = phi ptr [ %12, %cleanup2 ], [ %.sroa.0.0, %bb6 ]
  %10 = getelementptr inbounds %"substreams_ethereum_core::pb::generated::sf::ethereum::r#type::v2::Block", ptr %_1, i32 0, i32 5
  invoke fastcc void @"_ZN4core3ptr125drop_in_place$LT$alloc..vec..Vec$LT$substreams_ethereum_core..pb..generated..sf..ethereum..type..v2..TransactionTrace$GT$$GT$17h411e4b5ea0a14450E"(ptr noundef %10) #20
          to label %bb4 unwind label %abort

cleanup2:                                         ; preds = %bb11
  %11 = landingpad { ptr, i32 }
          cleanup
  %12 = extractvalue { ptr, i32 } %11, 0
  %13 = extractvalue { ptr, i32 } %11, 1
  br label %bb5

bb10:                                             ; preds = %bb11
  %14 = getelementptr inbounds %"substreams_ethereum_core::pb::generated::sf::ethereum::r#type::v2::Block", ptr %_1, i32 0, i32 5
  invoke fastcc void @"_ZN4core3ptr125drop_in_place$LT$alloc..vec..Vec$LT$substreams_ethereum_core..pb..generated..sf..ethereum..type..v2..TransactionTrace$GT$$GT$17h411e4b5ea0a14450E"(ptr noundef %14)
          to label %bb9 unwind label %cleanup3

bb4:                                              ; preds = %cleanup3, %bb5
  %.sroa.12.2 = phi i32 [ %18, %cleanup3 ], [ %.sroa.12.1, %bb5 ]
  %.sroa.0.2 = phi ptr [ %17, %cleanup3 ], [ %.sroa.0.1, %bb5 ]
  %15 = getelementptr inbounds %"substreams_ethereum_core::pb::generated::sf::ethereum::r#type::v2::Block", ptr %_1, i32 0, i32 6
  invoke fastcc void @"_ZN4core3ptr122drop_in_place$LT$alloc..vec..Vec$LT$substreams_ethereum_core..pb..generated..sf..ethereum..type..v2..BalanceChange$GT$$GT$17h66fcb15f9f768edbE"(ptr noundef %15) #20
          to label %bb3 unwind label %abort

cleanup3:                                         ; preds = %bb10
  %16 = landingpad { ptr, i32 }
          cleanup
  %17 = extractvalue { ptr, i32 } %16, 0
  %18 = extractvalue { ptr, i32 } %16, 1
  br label %bb4

bb9:                                              ; preds = %bb10
  %19 = getelementptr inbounds %"substreams_ethereum_core::pb::generated::sf::ethereum::r#type::v2::Block", ptr %_1, i32 0, i32 6
  invoke fastcc void @"_ZN4core3ptr122drop_in_place$LT$alloc..vec..Vec$LT$substreams_ethereum_core..pb..generated..sf..ethereum..type..v2..BalanceChange$GT$$GT$17h66fcb15f9f768edbE"(ptr noundef %19)
          to label %bb8 unwind label %cleanup4

bb3:                                              ; preds = %cleanup4, %bb4
  %.sroa.12.3 = phi i32 [ %23, %cleanup4 ], [ %.sroa.12.2, %bb4 ]
  %.sroa.0.3 = phi ptr [ %22, %cleanup4 ], [ %.sroa.0.2, %bb4 ]
  %20 = getelementptr inbounds %"substreams_ethereum_core::pb::generated::sf::ethereum::r#type::v2::Block", ptr %_1, i32 0, i32 7
  invoke fastcc void @"_ZN4core3ptr119drop_in_place$LT$alloc..vec..Vec$LT$substreams_ethereum_core..pb..generated..sf..ethereum..type..v2..CodeChange$GT$$GT$17h7197609bd6728b1eE"(ptr noundef %20) #20
          to label %bb1 unwind label %abort

cleanup4:                                         ; preds = %bb9
  %21 = landingpad { ptr, i32 }
          cleanup
  %22 = extractvalue { ptr, i32 } %21, 0
  %23 = extractvalue { ptr, i32 } %21, 1
  br label %bb3

bb8:                                              ; preds = %bb9
  %24 = getelementptr inbounds %"substreams_ethereum_core::pb::generated::sf::ethereum::r#type::v2::Block", ptr %_1, i32 0, i32 7
  call fastcc void @"_ZN4core3ptr119drop_in_place$LT$alloc..vec..Vec$LT$substreams_ethereum_core..pb..generated..sf..ethereum..type..v2..CodeChange$GT$$GT$17h7197609bd6728b1eE"(ptr noundef %24)
  ret void

bb1:                                              ; preds = %bb3
  %25 = insertvalue { ptr, i32 } undef, ptr %.sroa.0.3, 0
  %26 = insertvalue { ptr, i32 } %25, i32 %.sroa.12.3, 1
  resume { ptr, i32 } %26
}

; Function Attrs: optsize uwtable
define internal fastcc void @"_ZN4core3ptr46drop_in_place$LT$prost..error..DecodeError$GT$17h9163871017093394E"(ptr noundef %_1) unnamed_addr #0 {
start:
  call fastcc void @"_ZN4core3ptr65drop_in_place$LT$alloc..boxed..Box$LT$prost..error..Inner$GT$$GT$17h59893848c0b9154cE"(ptr noundef %_1)
  ret void
}

; Function Attrs: optsize uwtable
define internal fastcc void @"_ZN4core3ptr65drop_in_place$LT$alloc..boxed..Box$LT$prost..error..Inner$GT$$GT$17h59893848c0b9154cE"(ptr noundef %_1) unnamed_addr #0 personality ptr @rust_eh_personality {
start:
  %_4 = load ptr, ptr %_1, align 8, !noundef !1
  invoke fastcc void @"_ZN4core3ptr40drop_in_place$LT$prost..error..Inner$GT$17hddf39b0581c59452E"(ptr noundef %_4)
          to label %bb3 unwind label %cleanup

cleanup:                                          ; preds = %start
  %0 = landingpad { ptr, i32 }
          cleanup
  %1 = extractvalue { ptr, i32 } %0, 0
  %2 = extractvalue { ptr, i32 } %0, 1
  %3 = load ptr, ptr %_1, align 8, !nonnull !1, !noundef !1
  invoke fastcc void @_ZN5alloc5alloc8box_free17hfcfc3ba3baae470dE(ptr noundef nonnull %3) #20
          to label %bb2 unwind label %abort

bb3:                                              ; preds = %start
  %4 = load ptr, ptr %_1, align 8, !nonnull !1, !noundef !1
  call fastcc void @_ZN5alloc5alloc8box_free17hfcfc3ba3baae470dE(ptr noundef nonnull %4)
  ret void

abort:                                            ; preds = %cleanup
  %5 = landingpad { ptr, i32 }
          cleanup
  call void @_ZN4core9panicking19panic_cannot_unwind17h567eff7135bb91deE() #21
  unreachable

bb2:                                              ; preds = %cleanup
  resume { ptr, i32 } %0
}

; Function Attrs: optsize uwtable
define internal fastcc void @"_ZN4core3ptr40drop_in_place$LT$prost..error..Inner$GT$17hddf39b0581c59452E"(ptr noundef %_1) unnamed_addr #0 personality ptr @rust_eh_personality {
start:
  invoke fastcc void @"_ZN4core3ptr50drop_in_place$LT$alloc..borrow..Cow$LT$str$GT$$GT$17h9764cb95b3cdebc8E"(ptr noundef %_1)
          to label %bb4 unwind label %cleanup

cleanup:                                          ; preds = %start
  %0 = landingpad { ptr, i32 }
          cleanup
  %1 = extractvalue { ptr, i32 } %0, 0
  %2 = extractvalue { ptr, i32 } %0, 1
  %3 = getelementptr inbounds %"prost::error::Inner", ptr %_1, i32 0, i32 1
  invoke fastcc void @"_ZN4core3ptr69drop_in_place$LT$alloc..vec..Vec$LT$$LP$$RF$str$C$$RF$str$RP$$GT$$GT$17h1fd780f3ae018e9dE"(ptr noundef %3) #20
          to label %bb1 unwind label %abort

bb4:                                              ; preds = %start
  %4 = getelementptr inbounds %"prost::error::Inner", ptr %_1, i32 0, i32 1
  call fastcc void @"_ZN4core3ptr69drop_in_place$LT$alloc..vec..Vec$LT$$LP$$RF$str$C$$RF$str$RP$$GT$$GT$17h1fd780f3ae018e9dE"(ptr noundef %4)
  ret void

abort:                                            ; preds = %cleanup
  %5 = landingpad { ptr, i32 }
          cleanup
  call void @_ZN4core9panicking19panic_cannot_unwind17h567eff7135bb91deE() #21
  unreachable

bb1:                                              ; preds = %cleanup
  resume { ptr, i32 } %0
}

; Function Attrs: inlinehint optsize uwtable
define internal fastcc void @_ZN5alloc5alloc8box_free17hfcfc3ba3baae470dE(ptr noundef nonnull %0) unnamed_addr #1 personality ptr @rust_eh_personality {
start:
  %alloc = alloca %"core::fmt::Error", align 1
  invoke fastcc void @"_ZN63_$LT$alloc..alloc..Global$u20$as$u20$core..alloc..Allocator$GT$10deallocate17h859ed1926b8d491dE"(ptr noundef nonnull %0, i64 noundef 56, i64 noundef 8)
          to label %bb3 unwind label %cleanup

cleanup:                                          ; preds = %start
  %1 = landingpad { ptr, i32 }
          cleanup
  %2 = extractvalue { ptr, i32 } %1, 0
  %3 = extractvalue { ptr, i32 } %1, 1
  resume { ptr, i32 } %1

bb3:                                              ; preds = %start
  ret void
}

; Function Attrs: inlinehint optsize uwtable
define internal fastcc void @"_ZN63_$LT$alloc..alloc..Global$u20$as$u20$core..alloc..Allocator$GT$10deallocate17h859ed1926b8d491dE"(ptr noundef nonnull %ptr, i64 noundef %0, i64 noundef %1) unnamed_addr #1 {
start:
  %2 = icmp eq i64 %0, 0
  br i1 %2, label %bb3, label %bb1

bb1:                                              ; preds = %start
  %_18 = icmp uge i64 -9223372036854775808, %1
  call void @llvm.assume(i1 %_18)
  %_19 = icmp ule i64 1, %1
  call void @llvm.assume(i1 %_19)
  call void @__rust_dealloc(ptr noundef %ptr, i64 noundef %0, i64 noundef %1) #23
  br label %bb3

bb3:                                              ; preds = %bb1, %start
  ret void
}

; Function Attrs: nounwind optsize allockind("free") uwtable
declare void @__rust_dealloc(ptr allocptr noundef, i64 noundef, i64 noundef) unnamed_addr #11

; Function Attrs: optsize uwtable
define internal fastcc void @"_ZN4core3ptr50drop_in_place$LT$alloc..borrow..Cow$LT$str$GT$$GT$17h9764cb95b3cdebc8E"(ptr noundef %_1) unnamed_addr #0 {
start:
  %_2 = load i64, ptr %_1, align 8, !range !5, !noundef !1
  %0 = icmp eq i64 %_2, 0
  br i1 %0, label %bb1, label %bb2

bb1:                                              ; preds = %bb2, %start
  ret void

bb2:                                              ; preds = %start
  %1 = getelementptr inbounds %"alloc::borrow::Cow<'_, str>::Owned", ptr %_1, i32 0, i32 1
  call void @"_ZN4core3ptr42drop_in_place$LT$alloc..string..String$GT$17h21c9543bd1b9d18cE"(ptr noundef %1)
  br label %bb1
}

; Function Attrs: optsize uwtable
define internal fastcc void @"_ZN4core3ptr69drop_in_place$LT$alloc..vec..Vec$LT$$LP$$RF$str$C$$RF$str$RP$$GT$$GT$17h1fd780f3ae018e9dE"(ptr noundef %_1) unnamed_addr #0 personality ptr @rust_eh_personality {
start:
  invoke void @"_ZN70_$LT$alloc..vec..Vec$LT$T$C$A$GT$$u20$as$u20$core..ops..drop..Drop$GT$4drop17h515edc0d19aa7dcfE"(ptr noalias noundef align 8 dereferenceable(24) %_1)
          to label %bb4 unwind label %cleanup

cleanup:                                          ; preds = %start
  %0 = landingpad { ptr, i32 }
          cleanup
  %1 = extractvalue { ptr, i32 } %0, 0
  %2 = extractvalue { ptr, i32 } %0, 1
  invoke fastcc void @"_ZN4core3ptr76drop_in_place$LT$alloc..raw_vec..RawVec$LT$$LP$$RF$str$C$$RF$str$RP$$GT$$GT$17hf29d1fb489696afeE"(ptr noundef %_1) #20
          to label %bb1 unwind label %abort

bb4:                                              ; preds = %start
  call fastcc void @"_ZN4core3ptr76drop_in_place$LT$alloc..raw_vec..RawVec$LT$$LP$$RF$str$C$$RF$str$RP$$GT$$GT$17hf29d1fb489696afeE"(ptr noundef %_1)
  ret void

abort:                                            ; preds = %cleanup
  %3 = landingpad { ptr, i32 }
          cleanup
  call void @_ZN4core9panicking19panic_cannot_unwind17h567eff7135bb91deE() #21
  unreachable

bb1:                                              ; preds = %cleanup
  resume { ptr, i32 } %0
}

; Function Attrs: optsize uwtable
declare void @"_ZN70_$LT$alloc..vec..Vec$LT$T$C$A$GT$$u20$as$u20$core..ops..drop..Drop$GT$4drop17h515edc0d19aa7dcfE"(ptr noalias noundef align 8 dereferenceable(24)) unnamed_addr #0

; Function Attrs: optsize uwtable
define internal fastcc void @"_ZN4core3ptr76drop_in_place$LT$alloc..raw_vec..RawVec$LT$$LP$$RF$str$C$$RF$str$RP$$GT$$GT$17hf29d1fb489696afeE"(ptr noundef %_1) unnamed_addr #0 {
start:
  call void @"_ZN77_$LT$alloc..raw_vec..RawVec$LT$T$C$A$GT$$u20$as$u20$core..ops..drop..Drop$GT$4drop17hb7e1859cf5fbe980E"(ptr noalias noundef align 8 dereferenceable(16) %_1)
  ret void
}

; Function Attrs: optsize uwtable
declare void @"_ZN77_$LT$alloc..raw_vec..RawVec$LT$T$C$A$GT$$u20$as$u20$core..ops..drop..Drop$GT$4drop17hb7e1859cf5fbe980E"(ptr noalias noundef align 8 dereferenceable(16)) unnamed_addr #0

; Function Attrs: optsize uwtable
define internal fastcc void @"_ZN4core3ptr125drop_in_place$LT$core..option..Option$LT$substreams_ethereum_core..pb..generated..sf..ethereum..type..v2..BlockHeader$GT$$GT$17h497cef06ced79688E"(ptr noundef %_1) unnamed_addr #0 {
start:
  %0 = getelementptr inbounds %"core::option::Option<substreams_ethereum_core::pb::generated::sf::ethereum::r#type::v2::BlockHeader>", ptr %_1, i32 0, i32 1
  %1 = load i64, ptr %0, align 8, !range !6, !noundef !1
  %2 = icmp eq i64 %1, 2
  %_2 = select i1 %2, i64 0, i64 1
  br i1 %2, label %bb1, label %bb2

bb1:                                              ; preds = %bb2, %start
  ret void

bb2:                                              ; preds = %start
  call fastcc void @"_ZN4core3ptr97drop_in_place$LT$substreams_ethereum_core..pb..generated..sf..ethereum..type..v2..BlockHeader$GT$17h0cd1522865b88f1dE"(ptr noundef %_1)
  br label %bb1
}

; Function Attrs: optsize uwtable
define internal fastcc void @"_ZN4core3ptr120drop_in_place$LT$alloc..vec..Vec$LT$substreams_ethereum_core..pb..generated..sf..ethereum..type..v2..BlockHeader$GT$$GT$17h2fee24f25346a9aaE"(ptr noundef %_1) unnamed_addr #0 personality ptr @rust_eh_personality {
start:
  invoke void @"_ZN70_$LT$alloc..vec..Vec$LT$T$C$A$GT$$u20$as$u20$core..ops..drop..Drop$GT$4drop17h6c778779addb2c2cE"(ptr noalias noundef align 8 dereferenceable(24) %_1)
          to label %bb4 unwind label %cleanup

cleanup:                                          ; preds = %start
  %0 = landingpad { ptr, i32 }
          cleanup
  %1 = extractvalue { ptr, i32 } %0, 0
  %2 = extractvalue { ptr, i32 } %0, 1
  invoke fastcc void @"_ZN4core3ptr127drop_in_place$LT$alloc..raw_vec..RawVec$LT$substreams_ethereum_core..pb..generated..sf..ethereum..type..v2..BlockHeader$GT$$GT$17hfb9743fecd24f61eE"(ptr noundef %_1) #20
          to label %bb1 unwind label %abort

bb4:                                              ; preds = %start
  call fastcc void @"_ZN4core3ptr127drop_in_place$LT$alloc..raw_vec..RawVec$LT$substreams_ethereum_core..pb..generated..sf..ethereum..type..v2..BlockHeader$GT$$GT$17hfb9743fecd24f61eE"(ptr noundef %_1)
  ret void

abort:                                            ; preds = %cleanup
  %3 = landingpad { ptr, i32 }
          cleanup
  call void @_ZN4core9panicking19panic_cannot_unwind17h567eff7135bb91deE() #21
  unreachable

bb1:                                              ; preds = %cleanup
  resume { ptr, i32 } %0
}

; Function Attrs: optsize uwtable
define internal fastcc void @"_ZN4core3ptr125drop_in_place$LT$alloc..vec..Vec$LT$substreams_ethereum_core..pb..generated..sf..ethereum..type..v2..TransactionTrace$GT$$GT$17h411e4b5ea0a14450E"(ptr noundef %_1) unnamed_addr #0 personality ptr @rust_eh_personality {
start:
  invoke void @"_ZN70_$LT$alloc..vec..Vec$LT$T$C$A$GT$$u20$as$u20$core..ops..drop..Drop$GT$4drop17h00465a7a86cfb80fE"(ptr noalias noundef align 8 dereferenceable(24) %_1)
          to label %bb4 unwind label %cleanup

cleanup:                                          ; preds = %start
  %0 = landingpad { ptr, i32 }
          cleanup
  %1 = extractvalue { ptr, i32 } %0, 0
  %2 = extractvalue { ptr, i32 } %0, 1
  invoke fastcc void @"_ZN4core3ptr132drop_in_place$LT$alloc..raw_vec..RawVec$LT$substreams_ethereum_core..pb..generated..sf..ethereum..type..v2..TransactionTrace$GT$$GT$17h8a8cfe6b8b0471ebE"(ptr noundef %_1) #20
          to label %bb1 unwind label %abort

bb4:                                              ; preds = %start
  call fastcc void @"_ZN4core3ptr132drop_in_place$LT$alloc..raw_vec..RawVec$LT$substreams_ethereum_core..pb..generated..sf..ethereum..type..v2..TransactionTrace$GT$$GT$17h8a8cfe6b8b0471ebE"(ptr noundef %_1)
  ret void

abort:                                            ; preds = %cleanup
  %3 = landingpad { ptr, i32 }
          cleanup
  call void @_ZN4core9panicking19panic_cannot_unwind17h567eff7135bb91deE() #21
  unreachable

bb1:                                              ; preds = %cleanup
  resume { ptr, i32 } %0
}

; Function Attrs: optsize uwtable
define internal fastcc void @"_ZN4core3ptr122drop_in_place$LT$alloc..vec..Vec$LT$substreams_ethereum_core..pb..generated..sf..ethereum..type..v2..BalanceChange$GT$$GT$17h66fcb15f9f768edbE"(ptr noundef %_1) unnamed_addr #0 personality ptr @rust_eh_personality {
start:
  invoke void @"_ZN70_$LT$alloc..vec..Vec$LT$T$C$A$GT$$u20$as$u20$core..ops..drop..Drop$GT$4drop17hfa1c1596bc196e31E"(ptr noalias noundef align 8 dereferenceable(24) %_1)
          to label %bb4 unwind label %cleanup

cleanup:                                          ; preds = %start
  %0 = landingpad { ptr, i32 }
          cleanup
  %1 = extractvalue { ptr, i32 } %0, 0
  %2 = extractvalue { ptr, i32 } %0, 1
  invoke fastcc void @"_ZN4core3ptr129drop_in_place$LT$alloc..raw_vec..RawVec$LT$substreams_ethereum_core..pb..generated..sf..ethereum..type..v2..BalanceChange$GT$$GT$17h2ac7d9a9450fff69E"(ptr noundef %_1) #20
          to label %bb1 unwind label %abort

bb4:                                              ; preds = %start
  call fastcc void @"_ZN4core3ptr129drop_in_place$LT$alloc..raw_vec..RawVec$LT$substreams_ethereum_core..pb..generated..sf..ethereum..type..v2..BalanceChange$GT$$GT$17h2ac7d9a9450fff69E"(ptr noundef %_1)
  ret void

abort:                                            ; preds = %cleanup
  %3 = landingpad { ptr, i32 }
          cleanup
  call void @_ZN4core9panicking19panic_cannot_unwind17h567eff7135bb91deE() #21
  unreachable

bb1:                                              ; preds = %cleanup
  resume { ptr, i32 } %0
}

; Function Attrs: optsize uwtable
define internal fastcc void @"_ZN4core3ptr119drop_in_place$LT$alloc..vec..Vec$LT$substreams_ethereum_core..pb..generated..sf..ethereum..type..v2..CodeChange$GT$$GT$17h7197609bd6728b1eE"(ptr noundef %_1) unnamed_addr #0 personality ptr @rust_eh_personality {
start:
  invoke void @"_ZN70_$LT$alloc..vec..Vec$LT$T$C$A$GT$$u20$as$u20$core..ops..drop..Drop$GT$4drop17h7645c06a51d62466E"(ptr noalias noundef align 8 dereferenceable(24) %_1)
          to label %bb4 unwind label %cleanup

cleanup:                                          ; preds = %start
  %0 = landingpad { ptr, i32 }
          cleanup
  %1 = extractvalue { ptr, i32 } %0, 0
  %2 = extractvalue { ptr, i32 } %0, 1
  invoke fastcc void @"_ZN4core3ptr126drop_in_place$LT$alloc..raw_vec..RawVec$LT$substreams_ethereum_core..pb..generated..sf..ethereum..type..v2..CodeChange$GT$$GT$17h1fd8cee48037a2a7E"(ptr noundef %_1) #20
          to label %bb1 unwind label %abort

bb4:                                              ; preds = %start
  call fastcc void @"_ZN4core3ptr126drop_in_place$LT$alloc..raw_vec..RawVec$LT$substreams_ethereum_core..pb..generated..sf..ethereum..type..v2..CodeChange$GT$$GT$17h1fd8cee48037a2a7E"(ptr noundef %_1)
  ret void

abort:                                            ; preds = %cleanup
  %3 = landingpad { ptr, i32 }
          cleanup
  call void @_ZN4core9panicking19panic_cannot_unwind17h567eff7135bb91deE() #21
  unreachable

bb1:                                              ; preds = %cleanup
  resume { ptr, i32 } %0
}

; Function Attrs: optsize uwtable
declare void @"_ZN70_$LT$alloc..vec..Vec$LT$T$C$A$GT$$u20$as$u20$core..ops..drop..Drop$GT$4drop17h7645c06a51d62466E"(ptr noalias noundef align 8 dereferenceable(24)) unnamed_addr #0

; Function Attrs: optsize uwtable
define internal fastcc void @"_ZN4core3ptr126drop_in_place$LT$alloc..raw_vec..RawVec$LT$substreams_ethereum_core..pb..generated..sf..ethereum..type..v2..CodeChange$GT$$GT$17h1fd8cee48037a2a7E"(ptr noundef %_1) unnamed_addr #0 {
start:
  call void @"_ZN77_$LT$alloc..raw_vec..RawVec$LT$T$C$A$GT$$u20$as$u20$core..ops..drop..Drop$GT$4drop17h0ae94bcb4df32c13E"(ptr noalias noundef align 8 dereferenceable(16) %_1)
  ret void
}

; Function Attrs: optsize uwtable
declare void @"_ZN77_$LT$alloc..raw_vec..RawVec$LT$T$C$A$GT$$u20$as$u20$core..ops..drop..Drop$GT$4drop17h0ae94bcb4df32c13E"(ptr noalias noundef align 8 dereferenceable(16)) unnamed_addr #0

; Function Attrs: optsize uwtable
declare void @"_ZN70_$LT$alloc..vec..Vec$LT$T$C$A$GT$$u20$as$u20$core..ops..drop..Drop$GT$4drop17hfa1c1596bc196e31E"(ptr noalias noundef align 8 dereferenceable(24)) unnamed_addr #0

; Function Attrs: optsize uwtable
define internal fastcc void @"_ZN4core3ptr129drop_in_place$LT$alloc..raw_vec..RawVec$LT$substreams_ethereum_core..pb..generated..sf..ethereum..type..v2..BalanceChange$GT$$GT$17h2ac7d9a9450fff69E"(ptr noundef %_1) unnamed_addr #0 {
start:
  call void @"_ZN77_$LT$alloc..raw_vec..RawVec$LT$T$C$A$GT$$u20$as$u20$core..ops..drop..Drop$GT$4drop17h542365c0c365260dE"(ptr noalias noundef align 8 dereferenceable(16) %_1)
  ret void
}

; Function Attrs: optsize uwtable
declare void @"_ZN77_$LT$alloc..raw_vec..RawVec$LT$T$C$A$GT$$u20$as$u20$core..ops..drop..Drop$GT$4drop17h542365c0c365260dE"(ptr noalias noundef align 8 dereferenceable(16)) unnamed_addr #0

; Function Attrs: optsize uwtable
declare void @"_ZN70_$LT$alloc..vec..Vec$LT$T$C$A$GT$$u20$as$u20$core..ops..drop..Drop$GT$4drop17h00465a7a86cfb80fE"(ptr noalias noundef align 8 dereferenceable(24)) unnamed_addr #0

; Function Attrs: optsize uwtable
define internal fastcc void @"_ZN4core3ptr132drop_in_place$LT$alloc..raw_vec..RawVec$LT$substreams_ethereum_core..pb..generated..sf..ethereum..type..v2..TransactionTrace$GT$$GT$17h8a8cfe6b8b0471ebE"(ptr noundef %_1) unnamed_addr #0 {
start:
  call void @"_ZN77_$LT$alloc..raw_vec..RawVec$LT$T$C$A$GT$$u20$as$u20$core..ops..drop..Drop$GT$4drop17h9ab15e75de2d2f20E"(ptr noalias noundef align 8 dereferenceable(16) %_1)
  ret void
}

; Function Attrs: optsize uwtable
declare void @"_ZN77_$LT$alloc..raw_vec..RawVec$LT$T$C$A$GT$$u20$as$u20$core..ops..drop..Drop$GT$4drop17h9ab15e75de2d2f20E"(ptr noalias noundef align 8 dereferenceable(16)) unnamed_addr #0

; Function Attrs: optsize uwtable
declare void @"_ZN70_$LT$alloc..vec..Vec$LT$T$C$A$GT$$u20$as$u20$core..ops..drop..Drop$GT$4drop17h6c778779addb2c2cE"(ptr noalias noundef align 8 dereferenceable(24)) unnamed_addr #0

; Function Attrs: optsize uwtable
define internal fastcc void @"_ZN4core3ptr127drop_in_place$LT$alloc..raw_vec..RawVec$LT$substreams_ethereum_core..pb..generated..sf..ethereum..type..v2..BlockHeader$GT$$GT$17hfb9743fecd24f61eE"(ptr noundef %_1) unnamed_addr #0 {
start:
  call void @"_ZN77_$LT$alloc..raw_vec..RawVec$LT$T$C$A$GT$$u20$as$u20$core..ops..drop..Drop$GT$4drop17h2d11cfd303703a0dE"(ptr noalias noundef align 8 dereferenceable(16) %_1)
  ret void
}

; Function Attrs: optsize uwtable
declare void @"_ZN77_$LT$alloc..raw_vec..RawVec$LT$T$C$A$GT$$u20$as$u20$core..ops..drop..Drop$GT$4drop17h2d11cfd303703a0dE"(ptr noalias noundef align 8 dereferenceable(16)) unnamed_addr #0

; Function Attrs: optsize uwtable
define internal fastcc void @"_ZN4core3ptr97drop_in_place$LT$substreams_ethereum_core..pb..generated..sf..ethereum..type..v2..BlockHeader$GT$17h0cd1522865b88f1dE"(ptr noundef %_1) unnamed_addr #0 personality ptr @rust_eh_personality {
start:
  %0 = getelementptr inbounds %"substreams_ethereum_core::pb::generated::sf::ethereum::r#type::v2::BlockHeader", ptr %_1, i32 0, i32 8
  invoke fastcc void @"_ZN4core3ptr46drop_in_place$LT$alloc..vec..Vec$LT$u8$GT$$GT$17h1abcdd8151e8740dE"(ptr noundef %0)
          to label %bb30 unwind label %cleanup

cleanup:                                          ; preds = %start
  %1 = landingpad { ptr, i32 }
          cleanup
  %2 = extractvalue { ptr, i32 } %1, 0
  %3 = extractvalue { ptr, i32 } %1, 1
  %4 = getelementptr inbounds %"substreams_ethereum_core::pb::generated::sf::ethereum::r#type::v2::BlockHeader", ptr %_1, i32 0, i32 9
  invoke fastcc void @"_ZN4core3ptr46drop_in_place$LT$alloc..vec..Vec$LT$u8$GT$$GT$17h1abcdd8151e8740dE"(ptr noundef %4) #20
          to label %bb15 unwind label %abort

bb30:                                             ; preds = %start
  %5 = getelementptr inbounds %"substreams_ethereum_core::pb::generated::sf::ethereum::r#type::v2::BlockHeader", ptr %_1, i32 0, i32 9
  invoke fastcc void @"_ZN4core3ptr46drop_in_place$LT$alloc..vec..Vec$LT$u8$GT$$GT$17h1abcdd8151e8740dE"(ptr noundef %5)
          to label %bb29 unwind label %cleanup1

abort:                                            ; preds = %bb3, %bb4, %bb5, %bb6, %bb7, %bb8, %bb9, %bb10, %bb11, %bb12, %bb13, %bb14, %bb15, %cleanup
  %6 = landingpad { ptr, i32 }
          cleanup
  call void @_ZN4core9panicking19panic_cannot_unwind17h567eff7135bb91deE() #21
  unreachable

bb15:                                             ; preds = %cleanup1, %cleanup
  %.sroa.30.0 = phi i32 [ %10, %cleanup1 ], [ %3, %cleanup ]
  %.sroa.0.0 = phi ptr [ %9, %cleanup1 ], [ %2, %cleanup ]
  %7 = getelementptr inbounds %"substreams_ethereum_core::pb::generated::sf::ethereum::r#type::v2::BlockHeader", ptr %_1, i32 0, i32 10
  invoke fastcc void @"_ZN4core3ptr46drop_in_place$LT$alloc..vec..Vec$LT$u8$GT$$GT$17h1abcdd8151e8740dE"(ptr noundef %7) #20
          to label %bb14 unwind label %abort

cleanup1:                                         ; preds = %bb30
  %8 = landingpad { ptr, i32 }
          cleanup
  %9 = extractvalue { ptr, i32 } %8, 0
  %10 = extractvalue { ptr, i32 } %8, 1
  br label %bb15

bb29:                                             ; preds = %bb30
  %11 = getelementptr inbounds %"substreams_ethereum_core::pb::generated::sf::ethereum::r#type::v2::BlockHeader", ptr %_1, i32 0, i32 10
  invoke fastcc void @"_ZN4core3ptr46drop_in_place$LT$alloc..vec..Vec$LT$u8$GT$$GT$17h1abcdd8151e8740dE"(ptr noundef %11)
          to label %bb28 unwind label %cleanup2

bb14:                                             ; preds = %cleanup2, %bb15
  %.sroa.30.1 = phi i32 [ %15, %cleanup2 ], [ %.sroa.30.0, %bb15 ]
  %.sroa.0.1 = phi ptr [ %14, %cleanup2 ], [ %.sroa.0.0, %bb15 ]
  %12 = getelementptr inbounds %"substreams_ethereum_core::pb::generated::sf::ethereum::r#type::v2::BlockHeader", ptr %_1, i32 0, i32 11
  invoke fastcc void @"_ZN4core3ptr46drop_in_place$LT$alloc..vec..Vec$LT$u8$GT$$GT$17h1abcdd8151e8740dE"(ptr noundef %12) #20
          to label %bb13 unwind label %abort

cleanup2:                                         ; preds = %bb29
  %13 = landingpad { ptr, i32 }
          cleanup
  %14 = extractvalue { ptr, i32 } %13, 0
  %15 = extractvalue { ptr, i32 } %13, 1
  br label %bb14

bb28:                                             ; preds = %bb29
  %16 = getelementptr inbounds %"substreams_ethereum_core::pb::generated::sf::ethereum::r#type::v2::BlockHeader", ptr %_1, i32 0, i32 11
  invoke fastcc void @"_ZN4core3ptr46drop_in_place$LT$alloc..vec..Vec$LT$u8$GT$$GT$17h1abcdd8151e8740dE"(ptr noundef %16)
          to label %bb27 unwind label %cleanup3

bb13:                                             ; preds = %cleanup3, %bb14
  %.sroa.30.2 = phi i32 [ %20, %cleanup3 ], [ %.sroa.30.1, %bb14 ]
  %.sroa.0.2 = phi ptr [ %19, %cleanup3 ], [ %.sroa.0.1, %bb14 ]
  %17 = getelementptr inbounds %"substreams_ethereum_core::pb::generated::sf::ethereum::r#type::v2::BlockHeader", ptr %_1, i32 0, i32 12
  invoke fastcc void @"_ZN4core3ptr46drop_in_place$LT$alloc..vec..Vec$LT$u8$GT$$GT$17h1abcdd8151e8740dE"(ptr noundef %17) #20
          to label %bb12 unwind label %abort

cleanup3:                                         ; preds = %bb28
  %18 = landingpad { ptr, i32 }
          cleanup
  %19 = extractvalue { ptr, i32 } %18, 0
  %20 = extractvalue { ptr, i32 } %18, 1
  br label %bb13

bb27:                                             ; preds = %bb28
  %21 = getelementptr inbounds %"substreams_ethereum_core::pb::generated::sf::ethereum::r#type::v2::BlockHeader", ptr %_1, i32 0, i32 12
  invoke fastcc void @"_ZN4core3ptr46drop_in_place$LT$alloc..vec..Vec$LT$u8$GT$$GT$17h1abcdd8151e8740dE"(ptr noundef %21)
          to label %bb26 unwind label %cleanup4

bb12:                                             ; preds = %cleanup4, %bb13
  %.sroa.30.3 = phi i32 [ %25, %cleanup4 ], [ %.sroa.30.2, %bb13 ]
  %.sroa.0.3 = phi ptr [ %24, %cleanup4 ], [ %.sroa.0.2, %bb13 ]
  %22 = getelementptr inbounds %"substreams_ethereum_core::pb::generated::sf::ethereum::r#type::v2::BlockHeader", ptr %_1, i32 0, i32 13
  invoke fastcc void @"_ZN4core3ptr46drop_in_place$LT$alloc..vec..Vec$LT$u8$GT$$GT$17h1abcdd8151e8740dE"(ptr noundef %22) #20
          to label %bb11 unwind label %abort

cleanup4:                                         ; preds = %bb27
  %23 = landingpad { ptr, i32 }
          cleanup
  %24 = extractvalue { ptr, i32 } %23, 0
  %25 = extractvalue { ptr, i32 } %23, 1
  br label %bb12

bb26:                                             ; preds = %bb27
  %26 = getelementptr inbounds %"substreams_ethereum_core::pb::generated::sf::ethereum::r#type::v2::BlockHeader", ptr %_1, i32 0, i32 13
  invoke fastcc void @"_ZN4core3ptr46drop_in_place$LT$alloc..vec..Vec$LT$u8$GT$$GT$17h1abcdd8151e8740dE"(ptr noundef %26)
          to label %bb25 unwind label %cleanup5

bb11:                                             ; preds = %cleanup5, %bb12
  %.sroa.30.4 = phi i32 [ %30, %cleanup5 ], [ %.sroa.30.3, %bb12 ]
  %.sroa.0.4 = phi ptr [ %29, %cleanup5 ], [ %.sroa.0.3, %bb12 ]
  %27 = getelementptr inbounds %"substreams_ethereum_core::pb::generated::sf::ethereum::r#type::v2::BlockHeader", ptr %_1, i32 0, i32 14
  invoke fastcc void @"_ZN4core3ptr46drop_in_place$LT$alloc..vec..Vec$LT$u8$GT$$GT$17h1abcdd8151e8740dE"(ptr noundef %27) #20
          to label %bb10 unwind label %abort

cleanup5:                                         ; preds = %bb26
  %28 = landingpad { ptr, i32 }
          cleanup
  %29 = extractvalue { ptr, i32 } %28, 0
  %30 = extractvalue { ptr, i32 } %28, 1
  br label %bb11

bb25:                                             ; preds = %bb26
  %31 = getelementptr inbounds %"substreams_ethereum_core::pb::generated::sf::ethereum::r#type::v2::BlockHeader", ptr %_1, i32 0, i32 14
  invoke fastcc void @"_ZN4core3ptr46drop_in_place$LT$alloc..vec..Vec$LT$u8$GT$$GT$17h1abcdd8151e8740dE"(ptr noundef %31)
          to label %bb24 unwind label %cleanup6

bb10:                                             ; preds = %cleanup6, %bb11
  %.sroa.30.5 = phi i32 [ %34, %cleanup6 ], [ %.sroa.30.4, %bb11 ]
  %.sroa.0.5 = phi ptr [ %33, %cleanup6 ], [ %.sroa.0.4, %bb11 ]
  invoke fastcc void @"_ZN4core3ptr120drop_in_place$LT$core..option..Option$LT$substreams_ethereum_core..pb..generated..sf..ethereum..type..v2..BigInt$GT$$GT$17hc3949aeec6024b90E"(ptr noundef %_1) #20
          to label %bb9 unwind label %abort

cleanup6:                                         ; preds = %bb25
  %32 = landingpad { ptr, i32 }
          cleanup
  %33 = extractvalue { ptr, i32 } %32, 0
  %34 = extractvalue { ptr, i32 } %32, 1
  br label %bb10

bb24:                                             ; preds = %bb25
  invoke fastcc void @"_ZN4core3ptr120drop_in_place$LT$core..option..Option$LT$substreams_ethereum_core..pb..generated..sf..ethereum..type..v2..BigInt$GT$$GT$17hc3949aeec6024b90E"(ptr noundef %_1)
          to label %bb23 unwind label %cleanup7

bb9:                                              ; preds = %cleanup7, %bb10
  %.sroa.30.6 = phi i32 [ %38, %cleanup7 ], [ %.sroa.30.5, %bb10 ]
  %.sroa.0.6 = phi ptr [ %37, %cleanup7 ], [ %.sroa.0.5, %bb10 ]
  %35 = getelementptr inbounds %"substreams_ethereum_core::pb::generated::sf::ethereum::r#type::v2::BlockHeader", ptr %_1, i32 0, i32 1
  invoke fastcc void @"_ZN4core3ptr120drop_in_place$LT$core..option..Option$LT$substreams_ethereum_core..pb..generated..sf..ethereum..type..v2..BigInt$GT$$GT$17hc3949aeec6024b90E"(ptr noundef %35) #20
          to label %bb8 unwind label %abort

cleanup7:                                         ; preds = %bb24
  %36 = landingpad { ptr, i32 }
          cleanup
  %37 = extractvalue { ptr, i32 } %36, 0
  %38 = extractvalue { ptr, i32 } %36, 1
  br label %bb9

bb23:                                             ; preds = %bb24
  %39 = getelementptr inbounds %"substreams_ethereum_core::pb::generated::sf::ethereum::r#type::v2::BlockHeader", ptr %_1, i32 0, i32 1
  invoke fastcc void @"_ZN4core3ptr120drop_in_place$LT$core..option..Option$LT$substreams_ethereum_core..pb..generated..sf..ethereum..type..v2..BigInt$GT$$GT$17hc3949aeec6024b90E"(ptr noundef %39)
          to label %bb22 unwind label %cleanup8

bb8:                                              ; preds = %cleanup8, %bb9
  %.sroa.30.7 = phi i32 [ %43, %cleanup8 ], [ %.sroa.30.6, %bb9 ]
  %.sroa.0.7 = phi ptr [ %42, %cleanup8 ], [ %.sroa.0.6, %bb9 ]
  %40 = getelementptr inbounds %"substreams_ethereum_core::pb::generated::sf::ethereum::r#type::v2::BlockHeader", ptr %_1, i32 0, i32 15
  invoke fastcc void @"_ZN4core3ptr46drop_in_place$LT$alloc..vec..Vec$LT$u8$GT$$GT$17h1abcdd8151e8740dE"(ptr noundef %40) #20
          to label %bb7 unwind label %abort

cleanup8:                                         ; preds = %bb23
  %41 = landingpad { ptr, i32 }
          cleanup
  %42 = extractvalue { ptr, i32 } %41, 0
  %43 = extractvalue { ptr, i32 } %41, 1
  br label %bb8

bb22:                                             ; preds = %bb23
  %44 = getelementptr inbounds %"substreams_ethereum_core::pb::generated::sf::ethereum::r#type::v2::BlockHeader", ptr %_1, i32 0, i32 15
  invoke fastcc void @"_ZN4core3ptr46drop_in_place$LT$alloc..vec..Vec$LT$u8$GT$$GT$17h1abcdd8151e8740dE"(ptr noundef %44)
          to label %bb21 unwind label %cleanup9

bb7:                                              ; preds = %cleanup9, %bb8
  %.sroa.30.8 = phi i32 [ %48, %cleanup9 ], [ %.sroa.30.7, %bb8 ]
  %.sroa.0.8 = phi ptr [ %47, %cleanup9 ], [ %.sroa.0.7, %bb8 ]
  %45 = getelementptr inbounds %"substreams_ethereum_core::pb::generated::sf::ethereum::r#type::v2::BlockHeader", ptr %_1, i32 0, i32 16
  invoke fastcc void @"_ZN4core3ptr46drop_in_place$LT$alloc..vec..Vec$LT$u8$GT$$GT$17h1abcdd8151e8740dE"(ptr noundef %45) #20
          to label %bb6 unwind label %abort

cleanup9:                                         ; preds = %bb22
  %46 = landingpad { ptr, i32 }
          cleanup
  %47 = extractvalue { ptr, i32 } %46, 0
  %48 = extractvalue { ptr, i32 } %46, 1
  br label %bb7

bb21:                                             ; preds = %bb22
  %49 = getelementptr inbounds %"substreams_ethereum_core::pb::generated::sf::ethereum::r#type::v2::BlockHeader", ptr %_1, i32 0, i32 16
  invoke fastcc void @"_ZN4core3ptr46drop_in_place$LT$alloc..vec..Vec$LT$u8$GT$$GT$17h1abcdd8151e8740dE"(ptr noundef %49)
          to label %bb20 unwind label %cleanup10

bb6:                                              ; preds = %cleanup10, %bb7
  %.sroa.30.9 = phi i32 [ %53, %cleanup10 ], [ %.sroa.30.8, %bb7 ]
  %.sroa.0.9 = phi ptr [ %52, %cleanup10 ], [ %.sroa.0.8, %bb7 ]
  %50 = getelementptr inbounds %"substreams_ethereum_core::pb::generated::sf::ethereum::r#type::v2::BlockHeader", ptr %_1, i32 0, i32 17
  invoke fastcc void @"_ZN4core3ptr46drop_in_place$LT$alloc..vec..Vec$LT$u8$GT$$GT$17h1abcdd8151e8740dE"(ptr noundef %50) #20
          to label %bb5 unwind label %abort

cleanup10:                                        ; preds = %bb21
  %51 = landingpad { ptr, i32 }
          cleanup
  %52 = extractvalue { ptr, i32 } %51, 0
  %53 = extractvalue { ptr, i32 } %51, 1
  br label %bb6

bb20:                                             ; preds = %bb21
  %54 = getelementptr inbounds %"substreams_ethereum_core::pb::generated::sf::ethereum::r#type::v2::BlockHeader", ptr %_1, i32 0, i32 17
  invoke fastcc void @"_ZN4core3ptr46drop_in_place$LT$alloc..vec..Vec$LT$u8$GT$$GT$17h1abcdd8151e8740dE"(ptr noundef %54)
          to label %bb19 unwind label %cleanup11

bb5:                                              ; preds = %cleanup11, %bb6
  %.sroa.30.10 = phi i32 [ %58, %cleanup11 ], [ %.sroa.30.9, %bb6 ]
  %.sroa.0.10 = phi ptr [ %57, %cleanup11 ], [ %.sroa.0.9, %bb6 ]
  %55 = getelementptr inbounds %"substreams_ethereum_core::pb::generated::sf::ethereum::r#type::v2::BlockHeader", ptr %_1, i32 0, i32 6
  invoke fastcc void @"_ZN4core3ptr120drop_in_place$LT$core..option..Option$LT$substreams_ethereum_core..pb..generated..sf..ethereum..type..v2..BigInt$GT$$GT$17hc3949aeec6024b90E"(ptr noundef %55) #20
          to label %bb4 unwind label %abort

cleanup11:                                        ; preds = %bb20
  %56 = landingpad { ptr, i32 }
          cleanup
  %57 = extractvalue { ptr, i32 } %56, 0
  %58 = extractvalue { ptr, i32 } %56, 1
  br label %bb5

bb19:                                             ; preds = %bb20
  %59 = getelementptr inbounds %"substreams_ethereum_core::pb::generated::sf::ethereum::r#type::v2::BlockHeader", ptr %_1, i32 0, i32 6
  invoke fastcc void @"_ZN4core3ptr120drop_in_place$LT$core..option..Option$LT$substreams_ethereum_core..pb..generated..sf..ethereum..type..v2..BigInt$GT$$GT$17hc3949aeec6024b90E"(ptr noundef %59)
          to label %bb18 unwind label %cleanup12

bb4:                                              ; preds = %cleanup12, %bb5
  %.sroa.30.11 = phi i32 [ %63, %cleanup12 ], [ %.sroa.30.10, %bb5 ]
  %.sroa.0.11 = phi ptr [ %62, %cleanup12 ], [ %.sroa.0.10, %bb5 ]
  %60 = getelementptr inbounds %"substreams_ethereum_core::pb::generated::sf::ethereum::r#type::v2::BlockHeader", ptr %_1, i32 0, i32 18
  invoke fastcc void @"_ZN4core3ptr46drop_in_place$LT$alloc..vec..Vec$LT$u8$GT$$GT$17h1abcdd8151e8740dE"(ptr noundef %60) #20
          to label %bb3 unwind label %abort

cleanup12:                                        ; preds = %bb19
  %61 = landingpad { ptr, i32 }
          cleanup
  %62 = extractvalue { ptr, i32 } %61, 0
  %63 = extractvalue { ptr, i32 } %61, 1
  br label %bb4

bb18:                                             ; preds = %bb19
  %64 = getelementptr inbounds %"substreams_ethereum_core::pb::generated::sf::ethereum::r#type::v2::BlockHeader", ptr %_1, i32 0, i32 18
  invoke fastcc void @"_ZN4core3ptr46drop_in_place$LT$alloc..vec..Vec$LT$u8$GT$$GT$17h1abcdd8151e8740dE"(ptr noundef %64)
          to label %bb17 unwind label %cleanup13

bb3:                                              ; preds = %cleanup13, %bb4
  %.sroa.30.12 = phi i32 [ %68, %cleanup13 ], [ %.sroa.30.11, %bb4 ]
  %.sroa.0.12 = phi ptr [ %67, %cleanup13 ], [ %.sroa.0.11, %bb4 ]
  %65 = getelementptr inbounds %"substreams_ethereum_core::pb::generated::sf::ethereum::r#type::v2::BlockHeader", ptr %_1, i32 0, i32 7
  invoke fastcc void @"_ZN4core3ptr131drop_in_place$LT$core..option..Option$LT$substreams_ethereum_core..pb..generated..sf..ethereum..type..v2..Uint64NestedArray$GT$$GT$17h4f46bc09359586f4E"(ptr noundef %65) #20
          to label %bb1 unwind label %abort

cleanup13:                                        ; preds = %bb18
  %66 = landingpad { ptr, i32 }
          cleanup
  %67 = extractvalue { ptr, i32 } %66, 0
  %68 = extractvalue { ptr, i32 } %66, 1
  br label %bb3

bb17:                                             ; preds = %bb18
  %69 = getelementptr inbounds %"substreams_ethereum_core::pb::generated::sf::ethereum::r#type::v2::BlockHeader", ptr %_1, i32 0, i32 7
  call fastcc void @"_ZN4core3ptr131drop_in_place$LT$core..option..Option$LT$substreams_ethereum_core..pb..generated..sf..ethereum..type..v2..Uint64NestedArray$GT$$GT$17h4f46bc09359586f4E"(ptr noundef %69)
  ret void

bb1:                                              ; preds = %bb3
  %70 = insertvalue { ptr, i32 } undef, ptr %.sroa.0.12, 0
  %71 = insertvalue { ptr, i32 } %70, i32 %.sroa.30.12, 1
  resume { ptr, i32 } %71
}

; Function Attrs: optsize uwtable
define internal fastcc void @"_ZN4core3ptr120drop_in_place$LT$core..option..Option$LT$substreams_ethereum_core..pb..generated..sf..ethereum..type..v2..BigInt$GT$$GT$17hc3949aeec6024b90E"(ptr noundef %_1) unnamed_addr #0 {
start:
  %0 = getelementptr inbounds %"core::option::Option<substreams_ethereum_core::pb::generated::sf::ethereum::r#type::v2::BigInt>", ptr %_1, i32 0, i32 1
  %1 = load ptr, ptr %0, align 8, !noundef !1
  %2 = ptrtoint ptr %1 to i64
  %3 = icmp eq i64 %2, 0
  %_2 = select i1 %3, i64 0, i64 1
  br i1 %3, label %bb1, label %bb2

bb1:                                              ; preds = %bb2, %start
  ret void

bb2:                                              ; preds = %start
  call fastcc void @"_ZN4core3ptr92drop_in_place$LT$substreams_ethereum_core..pb..generated..sf..ethereum..type..v2..BigInt$GT$17h28d56dcc7953535bE"(ptr noundef %_1)
  br label %bb1
}

; Function Attrs: optsize uwtable
define internal fastcc void @"_ZN4core3ptr131drop_in_place$LT$core..option..Option$LT$substreams_ethereum_core..pb..generated..sf..ethereum..type..v2..Uint64NestedArray$GT$$GT$17h4f46bc09359586f4E"(ptr noundef %_1) unnamed_addr #0 {
start:
  %0 = getelementptr inbounds %"core::option::Option<substreams_ethereum_core::pb::generated::sf::ethereum::r#type::v2::BigInt>", ptr %_1, i32 0, i32 1
  %1 = load ptr, ptr %0, align 8, !noundef !1
  %2 = ptrtoint ptr %1 to i64
  %3 = icmp eq i64 %2, 0
  %_2 = select i1 %3, i64 0, i64 1
  br i1 %3, label %bb1, label %bb2

bb1:                                              ; preds = %bb2, %start
  ret void

bb2:                                              ; preds = %start
  call fastcc void @"_ZN4core3ptr103drop_in_place$LT$substreams_ethereum_core..pb..generated..sf..ethereum..type..v2..Uint64NestedArray$GT$17hf54af01b4f361eacE"(ptr noundef %_1)
  br label %bb1
}

; Function Attrs: optsize uwtable
define internal fastcc void @"_ZN4core3ptr103drop_in_place$LT$substreams_ethereum_core..pb..generated..sf..ethereum..type..v2..Uint64NestedArray$GT$17hf54af01b4f361eacE"(ptr noundef %_1) unnamed_addr #0 {
start:
  call fastcc void @"_ZN4core3ptr120drop_in_place$LT$alloc..vec..Vec$LT$substreams_ethereum_core..pb..generated..sf..ethereum..type..v2..Uint64Array$GT$$GT$17h334b650db12bd43fE"(ptr noundef %_1)
  ret void
}

; Function Attrs: optsize uwtable
define internal fastcc void @"_ZN4core3ptr120drop_in_place$LT$alloc..vec..Vec$LT$substreams_ethereum_core..pb..generated..sf..ethereum..type..v2..Uint64Array$GT$$GT$17h334b650db12bd43fE"(ptr noundef %_1) unnamed_addr #0 personality ptr @rust_eh_personality {
start:
  invoke void @"_ZN70_$LT$alloc..vec..Vec$LT$T$C$A$GT$$u20$as$u20$core..ops..drop..Drop$GT$4drop17h6f14980a0f22fdeeE"(ptr noalias noundef align 8 dereferenceable(24) %_1)
          to label %bb4 unwind label %cleanup

cleanup:                                          ; preds = %start
  %0 = landingpad { ptr, i32 }
          cleanup
  %1 = extractvalue { ptr, i32 } %0, 0
  %2 = extractvalue { ptr, i32 } %0, 1
  invoke fastcc void @"_ZN4core3ptr127drop_in_place$LT$alloc..raw_vec..RawVec$LT$substreams_ethereum_core..pb..generated..sf..ethereum..type..v2..Uint64Array$GT$$GT$17h2cd2d9ae3160011fE"(ptr noundef %_1) #20
          to label %bb1 unwind label %abort

bb4:                                              ; preds = %start
  call fastcc void @"_ZN4core3ptr127drop_in_place$LT$alloc..raw_vec..RawVec$LT$substreams_ethereum_core..pb..generated..sf..ethereum..type..v2..Uint64Array$GT$$GT$17h2cd2d9ae3160011fE"(ptr noundef %_1)
  ret void

abort:                                            ; preds = %cleanup
  %3 = landingpad { ptr, i32 }
          cleanup
  call void @_ZN4core9panicking19panic_cannot_unwind17h567eff7135bb91deE() #21
  unreachable

bb1:                                              ; preds = %cleanup
  resume { ptr, i32 } %0
}

; Function Attrs: optsize uwtable
declare void @"_ZN70_$LT$alloc..vec..Vec$LT$T$C$A$GT$$u20$as$u20$core..ops..drop..Drop$GT$4drop17h6f14980a0f22fdeeE"(ptr noalias noundef align 8 dereferenceable(24)) unnamed_addr #0

; Function Attrs: optsize uwtable
define internal fastcc void @"_ZN4core3ptr127drop_in_place$LT$alloc..raw_vec..RawVec$LT$substreams_ethereum_core..pb..generated..sf..ethereum..type..v2..Uint64Array$GT$$GT$17h2cd2d9ae3160011fE"(ptr noundef %_1) unnamed_addr #0 {
start:
  call void @"_ZN77_$LT$alloc..raw_vec..RawVec$LT$T$C$A$GT$$u20$as$u20$core..ops..drop..Drop$GT$4drop17h6963d28074c0e06fE"(ptr noalias noundef align 8 dereferenceable(16) %_1)
  ret void
}

; Function Attrs: optsize uwtable
declare void @"_ZN77_$LT$alloc..raw_vec..RawVec$LT$T$C$A$GT$$u20$as$u20$core..ops..drop..Drop$GT$4drop17h6963d28074c0e06fE"(ptr noalias noundef align 8 dereferenceable(16)) unnamed_addr #0

; Function Attrs: optsize uwtable
define internal fastcc void @"_ZN4core3ptr92drop_in_place$LT$substreams_ethereum_core..pb..generated..sf..ethereum..type..v2..BigInt$GT$17h28d56dcc7953535bE"(ptr noundef %_1) unnamed_addr #0 {
start:
  call fastcc void @"_ZN4core3ptr46drop_in_place$LT$alloc..vec..Vec$LT$u8$GT$$GT$17h1abcdd8151e8740dE"(ptr noundef %_1)
  ret void
}

; Function Attrs: optsize uwtable
declare void @"_ZN113_$LT$substreams_ethereum_core..pb..generated..sf..ethereum..type..v2..Block$u20$as$u20$core..default..Default$GT$7default17h33c73c1fc36af88eE"(ptr noalias nocapture noundef sret(%"substreams_ethereum_core::pb::generated::sf::ethereum::r#type::v2::Block") dereferenceable(560)) unnamed_addr #0

; Function Attrs: optsize uwtable
define noundef align 8 ptr @_ZN5prost7message7Message5merge17h027ac0a3f35605b6E(ptr noalias noundef align 8 dereferenceable(560) %self, ptr noalias noundef align 8 dereferenceable(16) %0) unnamed_addr #0 personality ptr @rust_eh_personality {
start:
  %_10 = alloca %"core::result::Result<(u32, prost::encoding::WireType), prost::error::DecodeError>", align 8
  %_9 = alloca %"core::result::Result<(u32, prost::encoding::WireType), prost::error::DecodeError>", align 8
  %ctx = alloca i32, align 4
  %buf = alloca ptr, align 8
  store ptr %0, ptr %buf, align 8
  call void @llvm.lifetime.start.p0(i64 4, ptr %ctx)
  invoke fastcc void @"_ZN73_$LT$prost..encoding..DecodeContext$u20$as$u20$core..default..Default$GT$7default17h2c8369a791d84013E"()
          to label %bb22 unwind label %cleanup

cleanup:                                          ; preds = %bb15, %bb11, %bb10, %bb8, %bb6, %bb4, %bb3, %bb1, %start
  %1 = landingpad { ptr, i32 }
          cleanup
  %2 = extractvalue { ptr, i32 } %1, 0
  %3 = extractvalue { ptr, i32 } %1, 1
  resume { ptr, i32 } %1

bb22:                                             ; preds = %start
  store i32 100, ptr %ctx, align 4
  br label %bb1

bb1:                                              ; preds = %bb12, %bb22
  %_4 = invoke noundef zeroext i1 @"_ZN59_$LT$$RF$mut$u20$T$u20$as$u20$bytes..buf..buf_impl..Buf$GT$13has_remaining17h8c40d97f833925acE"(ptr noalias noundef readonly align 8 dereferenceable(8) %buf)
          to label %bb2 unwind label %cleanup

bb2:                                              ; preds = %bb1
  br i1 %_4, label %bb3, label %bb17

bb17:                                             ; preds = %bb2
  call void @llvm.lifetime.end.p0(i64 4, ptr %ctx)
  br label %bb19

bb3:                                              ; preds = %bb2
  call void @llvm.lifetime.start.p0(i64 16, ptr %_9)
  call void @llvm.lifetime.start.p0(i64 16, ptr %_10)
  invoke fastcc void @_ZN5prost8encoding10decode_key17hf3dd83fc1337f30dE(ptr noalias nocapture noundef sret(%"core::result::Result<(u32, prost::encoding::WireType), prost::error::DecodeError>") dereferenceable(16) %_10, ptr noalias noundef align 8 dereferenceable(8) %buf)
          to label %bb4 unwind label %cleanup

bb4:                                              ; preds = %bb3
  invoke fastcc void @"_ZN79_$LT$core..result..Result$LT$T$C$E$GT$$u20$as$u20$core..ops..try_trait..Try$GT$6branch17h2dcf99bf0353f8beE"(ptr noalias nocapture noundef sret(%"core::result::Result<(u32, prost::encoding::WireType), prost::error::DecodeError>") dereferenceable(16) %_9, ptr noalias nocapture noundef dereferenceable(16) %_10)
          to label %bb5 unwind label %cleanup

bb5:                                              ; preds = %bb4
  call void @llvm.lifetime.end.p0(i64 16, ptr %_10)
  %4 = load i32, ptr %_9, align 8, !range !7, !noundef !1
  %_13 = zext i32 %4 to i64
  %switch = icmp ult i64 %_13, 1
  br i1 %switch, label %bb6, label %bb8

bb6:                                              ; preds = %bb5
  %5 = getelementptr inbounds %"core::ops::control_flow::ControlFlow<core::result::Result<core::convert::Infallible, prost::error::DecodeError>, (u32, prost::encoding::WireType)>::Continue", ptr %_9, i32 0, i32 1
  %val.0 = load i32, ptr %5, align 4, !noundef !1
  %6 = getelementptr inbounds { i32, i8 }, ptr %5, i32 0, i32 1
  %val.1 = load i8, ptr %6, align 4, !range !8, !noundef !1
  call void @llvm.lifetime.end.p0(i64 16, ptr %_9)
  %_24 = invoke fastcc noundef i32 @"_ZN69_$LT$prost..encoding..DecodeContext$u20$as$u20$core..clone..Clone$GT$5clone17h6882d0dc2133d2e4E"(ptr noalias noundef readonly align 4 dereferenceable(4) %ctx)
          to label %bb10 unwind label %cleanup

bb8:                                              ; preds = %bb5
  %7 = getelementptr inbounds %"core::ops::control_flow::ControlFlow<core::result::Result<core::convert::Infallible, prost::error::DecodeError>, (u32, prost::encoding::WireType)>::Break", ptr %_9, i32 0, i32 1
  %residual = load ptr, ptr %7, align 8, !nonnull !1, !align !2, !noundef !1
  %8 = invoke fastcc noundef align 8 ptr @"_ZN153_$LT$core..result..Result$LT$T$C$F$GT$$u20$as$u20$core..ops..try_trait..FromResidual$LT$core..result..Result$LT$core..convert..Infallible$C$E$GT$$GT$$GT$13from_residual17h3d04bd5dc0cddb81E"(ptr noalias noundef nonnull align 8 %residual)
          to label %bb9 unwind label %cleanup

bb9:                                              ; preds = %bb8
  call void @llvm.lifetime.end.p0(i64 16, ptr %_9)
  br label %bb18

bb18:                                             ; preds = %bb15, %bb9
  %.0 = phi ptr [ %8, %bb9 ], [ %13, %bb15 ]
  call void @llvm.lifetime.end.p0(i64 4, ptr %ctx)
  br label %bb19

bb10:                                             ; preds = %bb6
  %_18 = invoke noundef align 8 ptr @"_ZN114_$LT$substreams_ethereum_core..pb..generated..sf..ethereum..type..v2..Block$u20$as$u20$prost..message..Message$GT$11merge_field17h02be0ff8d54f2ebeE"(ptr noalias noundef align 8 dereferenceable(560) %self, i32 noundef %val.0, i8 noundef %val.1, ptr noalias noundef align 8 dereferenceable(8) %buf, i32 noundef %_24)
          to label %bb11 unwind label %cleanup

bb11:                                             ; preds = %bb10
  %9 = invoke fastcc noundef align 8 ptr @"_ZN79_$LT$core..result..Result$LT$T$C$E$GT$$u20$as$u20$core..ops..try_trait..Try$GT$6branch17hd6c681b24bf976c1E"(ptr noalias noundef align 8 %_18)
          to label %bb12 unwind label %cleanup

bb12:                                             ; preds = %bb11
  %10 = ptrtoint ptr %9 to i64
  %11 = icmp eq i64 %10, 0
  br i1 %11, label %bb1, label %bb15

bb15:                                             ; preds = %bb12
  %12 = icmp ne ptr %9, null
  call void @llvm.assume(i1 %12)
  %13 = invoke fastcc noundef align 8 ptr @"_ZN153_$LT$core..result..Result$LT$T$C$F$GT$$u20$as$u20$core..ops..try_trait..FromResidual$LT$core..result..Result$LT$core..convert..Infallible$C$E$GT$$GT$$GT$13from_residual17h3d04bd5dc0cddb81E"(ptr noalias noundef nonnull align 8 %9)
          to label %bb18 unwind label %cleanup

bb19:                                             ; preds = %bb18, %bb17
  %.1 = phi ptr [ %.0, %bb18 ], [ null, %bb17 ]
  ret ptr %.1
}

; Function Attrs: inlinehint optsize uwtable
define internal fastcc void @"_ZN4core6result19Result$LT$T$C$E$GT$3map17hf7751f81a23d21bfE"(ptr noalias nocapture noundef sret(%"core::result::Result<substreams_ethereum_core::pb::generated::sf::ethereum::r#type::v2::Block, prost::error::DecodeError>") dereferenceable(560) %0, ptr noalias noundef align 8 %1, ptr noalias nocapture noundef dereferenceable(560) %op) unnamed_addr #1 {
start:
  %_6 = alloca %"[closure@<substreams_ethereum_core::pb::generated::sf::ethereum::r#type::v2::Block as prost::message::Message>::decode<&[u8]>::{closure#0}]", align 8
  %_5 = alloca %"substreams_ethereum_core::pb::generated::sf::ethereum::r#type::v2::Block", align 8
  %2 = ptrtoint ptr %1 to i64
  %3 = icmp eq i64 %2, 0
  br i1 %3, label %bb3, label %bb1

bb3:                                              ; preds = %start
  call void @llvm.lifetime.start.p0(i64 560, ptr %_5)
  call void @llvm.lifetime.start.p0(i64 560, ptr %_6)
  call void @llvm.memcpy.p0.p0.i64(ptr align 8 %_6, ptr align 8 %op, i64 560, i1 false)
  call fastcc void @"_ZN5prost7message7Message6decode28_$u7b$$u7b$closure$u7d$$u7d$17h655100a67eee9f4fE"(ptr noalias nocapture noundef sret(%"substreams_ethereum_core::pb::generated::sf::ethereum::r#type::v2::Block") dereferenceable(560) %_5, ptr noalias nocapture noundef dereferenceable(560) %_6)
  call void @llvm.lifetime.end.p0(i64 560, ptr %_6)
  call void @llvm.memcpy.p0.p0.i64(ptr align 8 %0, ptr align 8 %_5, i64 560, i1 false)
  call void @llvm.lifetime.end.p0(i64 560, ptr %_5)
  br label %bb7

bb1:                                              ; preds = %start
  %4 = icmp ne ptr %1, null
  call void @llvm.assume(i1 %4)
  store ptr %1, ptr %0, align 8
  %5 = getelementptr inbounds %"core::result::Result<substreams_ethereum_core::pb::generated::sf::ethereum::r#type::v2::Block, prost::error::DecodeError>", ptr %0, i32 0, i32 1
  store i64 3, ptr %5, align 8
  br label %bb7

bb7:                                              ; preds = %bb1, %bb3
  %_11.0 = phi i8 [ 0, %bb3 ], [ 1, %bb1 ]
  %6 = trunc i8 %_11.0 to i1
  br i1 %6, label %bb6, label %bb5

bb5:                                              ; preds = %bb6, %bb7
  ret void

bb6:                                              ; preds = %bb7
  call fastcc void @"_ZN4core3ptr195drop_in_place$LT$$LT$substreams_ethereum_core..pb..generated..sf..ethereum..type..v2..Block$u20$as$u20$prost..message..Message$GT$..decode$LT$$RF$$u5b$u8$u5d$$GT$..$u7b$$u7b$closure$u7d$$u7d$$GT$17hd7293849fe718debE"(ptr noundef %op)
  br label %bb5
}

; Function Attrs: inlinehint optsize uwtable
define internal fastcc void @"_ZN5prost7message7Message6decode28_$u7b$$u7b$closure$u7d$$u7d$17h655100a67eee9f4fE"(ptr noalias nocapture noundef sret(%"substreams_ethereum_core::pb::generated::sf::ethereum::r#type::v2::Block") dereferenceable(560) %0, ptr noalias nocapture noundef dereferenceable(560) %_1) unnamed_addr #1 {
start:
  call void @llvm.memcpy.p0.p0.i64(ptr align 8 %0, ptr align 8 %_1, i64 560, i1 false)
  ret void
}

; Function Attrs: optsize uwtable
define internal fastcc void @"_ZN4core3ptr195drop_in_place$LT$$LT$substreams_ethereum_core..pb..generated..sf..ethereum..type..v2..Block$u20$as$u20$prost..message..Message$GT$..decode$LT$$RF$$u5b$u8$u5d$$GT$..$u7b$$u7b$closure$u7d$$u7d$$GT$17hd7293849fe718debE"(ptr noundef %_1) unnamed_addr #0 {
start:
  call fastcc void @"_ZN4core3ptr91drop_in_place$LT$substreams_ethereum_core..pb..generated..sf..ethereum..type..v2..Block$GT$17h30492cccc46db373E"(ptr noundef %_1)
  ret void
}

; Function Attrs: inlinehint optsize uwtable
define internal fastcc void @"_ZN73_$LT$prost..encoding..DecodeContext$u20$as$u20$core..default..Default$GT$7default17h2c8369a791d84013E"() unnamed_addr #1 {
start:
  ret void
}

; Function Attrs: optsize uwtable
declare noundef zeroext i1 @"_ZN59_$LT$$RF$mut$u20$T$u20$as$u20$bytes..buf..buf_impl..Buf$GT$13has_remaining17h8c40d97f833925acE"(ptr noalias noundef readonly align 8 dereferenceable(8)) unnamed_addr #0

; Function Attrs: alwaysinline optsize uwtable
define internal fastcc void @_ZN5prost8encoding10decode_key17hf3dd83fc1337f30dE(ptr noalias nocapture noundef sret(%"core::result::Result<(u32, prost::encoding::WireType), prost::error::DecodeError>") dereferenceable(16) %0, ptr noalias noundef align 8 dereferenceable(8) %buf) unnamed_addr #10 {
start:
  %_29 = alloca %"core::result::Result<prost::encoding::WireType, prost::error::DecodeError>", align 8
  %_28 = alloca %"core::result::Result<prost::encoding::WireType, prost::error::DecodeError>", align 8
  %_23 = alloca [1 x { ptr, ptr }], align 8
  %_16 = alloca %"core::fmt::Arguments<'_>", align 8
  %res = alloca %"alloc::string::String", align 8
  %_14 = alloca %"alloc::string::String", align 8
  %_4 = alloca %"core::result::Result<u64, prost::error::DecodeError>", align 8
  %_3 = alloca %"core::result::Result<u64, prost::error::DecodeError>", align 8
  %key = alloca i64, align 8
  call void @llvm.lifetime.start.p0(i64 8, ptr %key)
  call void @llvm.lifetime.start.p0(i64 16, ptr %_3)
  call void @llvm.lifetime.start.p0(i64 16, ptr %_4)
  call fastcc void @_ZN5prost8encoding13decode_varint17h383cccc8b21acc4eE(ptr noalias nocapture noundef sret(%"core::result::Result<u64, prost::error::DecodeError>") dereferenceable(16) %_4, ptr noalias noundef align 8 dereferenceable(8) %buf)
  call fastcc void @"_ZN79_$LT$core..result..Result$LT$T$C$E$GT$$u20$as$u20$core..ops..try_trait..Try$GT$6branch17hc213fd47e04fdf31E"(ptr noalias nocapture noundef sret(%"core::result::Result<u64, prost::error::DecodeError>") dereferenceable(16) %_3, ptr noalias nocapture noundef dereferenceable(16) %_4)
  call void @llvm.lifetime.end.p0(i64 16, ptr %_4)
  %_6 = load i64, ptr %_3, align 8, !range !5, !noundef !1
  %switch = icmp ult i64 %_6, 1
  br i1 %switch, label %bb3, label %bb5

bb3:                                              ; preds = %start
  %1 = getelementptr inbounds %"core::ops::control_flow::ControlFlow<core::result::Result<core::convert::Infallible, prost::error::DecodeError>, u64>::Continue", ptr %_3, i32 0, i32 1
  %val = load i64, ptr %1, align 8, !noundef !1
  store i64 %val, ptr %key, align 8
  call void @llvm.lifetime.end.p0(i64 16, ptr %_3)
  %_11 = load i64, ptr %key, align 8, !noundef !1
  %_12 = call fastcc noundef i64 @"_ZN4core7convert3num64_$LT$impl$u20$core..convert..From$LT$u32$GT$$u20$for$u20$u64$GT$4from17h9bbae21e9e6798e1E"(i32 noundef -1), !range !9
  %_10 = icmp ugt i64 %_11, %_12
  br i1 %_10, label %bb8, label %bb13

bb5:                                              ; preds = %start
  %2 = getelementptr inbounds %"core::ops::control_flow::ControlFlow<core::result::Result<core::convert::Infallible, prost::error::DecodeError>, (u32, prost::encoding::WireType)>::Break", ptr %_3, i32 0, i32 1
  %residual = load ptr, ptr %2, align 8, !nonnull !1, !align !2, !noundef !1
  call fastcc void @"_ZN153_$LT$core..result..Result$LT$T$C$F$GT$$u20$as$u20$core..ops..try_trait..FromResidual$LT$core..result..Result$LT$core..convert..Infallible$C$E$GT$$GT$$GT$13from_residual17h11e7c4b394f8019aE"(ptr noalias nocapture noundef sret(%"core::result::Result<(u32, prost::encoding::WireType), prost::error::DecodeError>") dereferenceable(16) %0, ptr noalias noundef nonnull align 8 %residual)
  call void @llvm.lifetime.end.p0(i64 16, ptr %_3)
  br label %bb24

bb24:                                             ; preds = %bb20, %bb18, %bb8, %bb5
  call void @llvm.lifetime.end.p0(i64 8, ptr %key)
  br label %bb25

bb13:                                             ; preds = %bb3
  call void @llvm.lifetime.start.p0(i64 16, ptr %_28)
  call void @llvm.lifetime.start.p0(i64 16, ptr %_29)
  %_31 = load i64, ptr %key, align 8, !noundef !1
  %_30 = and i64 %_31, 7
  call fastcc void @"_ZN79_$LT$prost..encoding..WireType$u20$as$u20$core..convert..TryFrom$LT$u64$GT$$GT$8try_from17h989c559b718b180aE"(ptr noalias nocapture noundef sret(%"core::result::Result<prost::encoding::WireType, prost::error::DecodeError>") dereferenceable(16) %_29, i64 noundef %_30)
  call fastcc void @"_ZN79_$LT$core..result..Result$LT$T$C$E$GT$$u20$as$u20$core..ops..try_trait..Try$GT$6branch17h5450215e185b1911E"(ptr noalias nocapture noundef sret(%"core::result::Result<prost::encoding::WireType, prost::error::DecodeError>") dereferenceable(16) %_28, ptr noalias nocapture noundef dereferenceable(16) %_29)
  call void @llvm.lifetime.end.p0(i64 16, ptr %_29)
  %3 = load i8, ptr %_28, align 8, !range !10, !noundef !1
  %4 = trunc i8 %3 to i1
  %_32 = zext i1 %4 to i64
  %switch3 = icmp ult i64 %_32, 1
  br i1 %switch3, label %bb16, label %bb18

bb8:                                              ; preds = %bb3
  call void @llvm.lifetime.start.p0(i64 24, ptr %_14)
  call void @llvm.lifetime.start.p0(i64 24, ptr %res)
  call void @llvm.lifetime.start.p0(i64 48, ptr %_16)
  call void @llvm.lifetime.start.p0(i64 16, ptr %_23)
  %5 = call fastcc ptr @_ZN4core3fmt10ArgumentV111new_display17h7a1ca051e64236cfE(ptr noalias noundef readonly align 8 dereferenceable(8) %key)
  %oldret = insertvalue { ptr, ptr } poison, ptr %5, 0
  %_24.0 = extractvalue { ptr, ptr } %oldret, 0
  store ptr %_24.0, ptr %_23, align 8
  %6 = getelementptr inbounds { ptr, ptr }, ptr %_23, i32 0, i32 1
  store ptr @"_ZN4core3fmt3num3imp52_$LT$impl$u20$core..fmt..Display$u20$for$u20$u64$GT$3fmt17h54da59fcb6f2b253E", ptr %6, align 8
  call fastcc void @_ZN4core3fmt9Arguments6new_v117hee53462b5f1042baE(ptr noalias nocapture noundef sret(%"core::fmt::Arguments<'_>") dereferenceable(48) %_16, ptr noalias noundef nonnull readonly align 8 @alloc81, i64 noundef 1, ptr noalias noundef nonnull readonly align 8 %_23, i64 noundef 1)
  call fastcc void @_ZN5alloc3fmt6format17h5ca71fbc160f0517E(ptr noalias nocapture noundef sret(%"alloc::string::String") dereferenceable(24) %res, ptr noalias nocapture noundef readonly dereferenceable(48) %_16)
  call void @llvm.lifetime.end.p0(i64 48, ptr %_16)
  call void @llvm.lifetime.end.p0(i64 16, ptr %_23)
  call void @llvm.memcpy.p0.p0.i64(ptr align 8 %_14, ptr align 8 %res, i64 24, i1 false)
  call void @llvm.lifetime.end.p0(i64 24, ptr %res)
  %_13 = call noundef nonnull align 8 ptr @_ZN5prost5error11DecodeError3new17h7ece6ac9f491ffe1E(ptr noalias nocapture noundef dereferenceable(24) %_14)
  call void @llvm.lifetime.end.p0(i64 24, ptr %_14)
  %7 = getelementptr inbounds %"core::ops::control_flow::ControlFlow<core::result::Result<core::convert::Infallible, prost::error::DecodeError>, (u32, prost::encoding::WireType)>::Break", ptr %0, i32 0, i32 1
  store ptr %_13, ptr %7, align 8
  store i32 1, ptr %0, align 8
  br label %bb24

bb16:                                             ; preds = %bb13
  %8 = getelementptr inbounds %"core::ops::control_flow::ControlFlow<core::result::Result<core::convert::Infallible, prost::error::DecodeError>, prost::encoding::WireType>::Continue", ptr %_28, i32 0, i32 1
  %val2 = load i8, ptr %8, align 1, !range !8, !noundef !1
  call void @llvm.lifetime.end.p0(i64 16, ptr %_28)
  %_38 = load i64, ptr %key, align 8, !noundef !1
  %_37 = trunc i64 %_38 to i32
  %tag = lshr i32 %_37, 3
  %_39 = icmp ult i32 %tag, 1
  br i1 %_39, label %bb20, label %bb22

bb18:                                             ; preds = %bb13
  %9 = getelementptr inbounds %"core::ops::control_flow::ControlFlow<core::result::Result<core::convert::Infallible, prost::error::DecodeError>, (u32, prost::encoding::WireType)>::Break", ptr %_28, i32 0, i32 1
  %residual1 = load ptr, ptr %9, align 8, !nonnull !1, !align !2, !noundef !1
  call fastcc void @"_ZN153_$LT$core..result..Result$LT$T$C$F$GT$$u20$as$u20$core..ops..try_trait..FromResidual$LT$core..result..Result$LT$core..convert..Infallible$C$E$GT$$GT$$GT$13from_residual17h11e7c4b394f8019aE"(ptr noalias nocapture noundef sret(%"core::result::Result<(u32, prost::encoding::WireType), prost::error::DecodeError>") dereferenceable(16) %0, ptr noalias noundef nonnull align 8 %residual1)
  call void @llvm.lifetime.end.p0(i64 16, ptr %_28)
  br label %bb24

bb22:                                             ; preds = %bb16
  %10 = getelementptr inbounds %"core::ops::control_flow::ControlFlow<core::result::Result<core::convert::Infallible, prost::error::DecodeError>, (u32, prost::encoding::WireType)>::Continue", ptr %0, i32 0, i32 1
  store i32 %tag, ptr %10, align 4
  %11 = getelementptr inbounds { i32, i8 }, ptr %10, i32 0, i32 1
  store i8 %val2, ptr %11, align 4
  store i32 0, ptr %0, align 8
  call void @llvm.lifetime.end.p0(i64 8, ptr %key)
  br label %bb25

bb20:                                             ; preds = %bb16
  %_41 = call noundef nonnull align 8 ptr @_ZN5prost5error11DecodeError3new17h9585b8fb62769803E(ptr noalias noundef nonnull readonly align 1 @alloc845, i64 noundef 20)
  %12 = getelementptr inbounds %"core::ops::control_flow::ControlFlow<core::result::Result<core::convert::Infallible, prost::error::DecodeError>, (u32, prost::encoding::WireType)>::Break", ptr %0, i32 0, i32 1
  store ptr %_41, ptr %12, align 8
  store i32 1, ptr %0, align 8
  br label %bb24

bb25:                                             ; preds = %bb22, %bb24
  ret void
}

; Function Attrs: inlinehint optsize uwtable
define internal fastcc void @"_ZN79_$LT$core..result..Result$LT$T$C$E$GT$$u20$as$u20$core..ops..try_trait..Try$GT$6branch17h2dcf99bf0353f8beE"(ptr noalias nocapture noundef sret(%"core::result::Result<(u32, prost::encoding::WireType), prost::error::DecodeError>") dereferenceable(16) %0, ptr noalias nocapture noundef dereferenceable(16) %self) unnamed_addr #1 {
start:
  %1 = load i32, ptr %self, align 8, !range !7, !noundef !1
  %_2 = zext i32 %1 to i64
  %switch = icmp ult i64 %_2, 1
  br i1 %switch, label %bb3, label %bb1

bb3:                                              ; preds = %start
  %2 = getelementptr inbounds %"core::ops::control_flow::ControlFlow<core::result::Result<core::convert::Infallible, prost::error::DecodeError>, (u32, prost::encoding::WireType)>::Continue", ptr %self, i32 0, i32 1
  %v.0 = load i32, ptr %2, align 4, !noundef !1
  %3 = getelementptr inbounds { i32, i8 }, ptr %2, i32 0, i32 1
  %v.1 = load i8, ptr %3, align 4, !range !8, !noundef !1
  %4 = getelementptr inbounds %"core::ops::control_flow::ControlFlow<core::result::Result<core::convert::Infallible, prost::error::DecodeError>, (u32, prost::encoding::WireType)>::Continue", ptr %0, i32 0, i32 1
  store i32 %v.0, ptr %4, align 4
  %5 = getelementptr inbounds { i32, i8 }, ptr %4, i32 0, i32 1
  store i8 %v.1, ptr %5, align 4
  store i32 0, ptr %0, align 8
  br label %bb4

bb1:                                              ; preds = %start
  %6 = getelementptr inbounds %"core::ops::control_flow::ControlFlow<core::result::Result<core::convert::Infallible, prost::error::DecodeError>, (u32, prost::encoding::WireType)>::Break", ptr %self, i32 0, i32 1
  %e = load ptr, ptr %6, align 8, !nonnull !1, !align !2, !noundef !1
  %7 = getelementptr inbounds %"core::ops::control_flow::ControlFlow<core::result::Result<core::convert::Infallible, prost::error::DecodeError>, (u32, prost::encoding::WireType)>::Break", ptr %0, i32 0, i32 1
  store ptr %e, ptr %7, align 8
  store i32 1, ptr %0, align 8
  br label %bb4

bb4:                                              ; preds = %bb1, %bb3
  ret void
}

; Function Attrs: inlinehint optsize uwtable
define internal fastcc noundef i32 @"_ZN69_$LT$prost..encoding..DecodeContext$u20$as$u20$core..clone..Clone$GT$5clone17h6882d0dc2133d2e4E"(ptr noalias noundef readonly align 4 dereferenceable(4) %self) unnamed_addr #1 {
start:
  %_2 = load i32, ptr %self, align 4, !noundef !1
  ret i32 %_2
}

; Function Attrs: inlinehint optsize uwtable
define internal fastcc noundef align 8 ptr @"_ZN153_$LT$core..result..Result$LT$T$C$F$GT$$u20$as$u20$core..ops..try_trait..FromResidual$LT$core..result..Result$LT$core..convert..Infallible$C$E$GT$$GT$$GT$13from_residual17h3d04bd5dc0cddb81E"(ptr noalias noundef nonnull align 8 %0) unnamed_addr #1 {
start:
  %_3 = call fastcc noundef nonnull align 8 ptr @"_ZN50_$LT$T$u20$as$u20$core..convert..From$LT$T$GT$$GT$4from17h8d2ae4ffe1cae035E"(ptr noalias noundef nonnull align 8 %0)
  ret ptr %_3
}

; Function Attrs: optsize uwtable
define noundef align 8 ptr @"_ZN114_$LT$substreams_ethereum_core..pb..generated..sf..ethereum..type..v2..Block$u20$as$u20$prost..message..Message$GT$11merge_field17h02be0ff8d54f2ebeE"(ptr noalias noundef align 8 dereferenceable(560) %self, i32 noundef %tag, i8 noundef %wire_type, ptr noalias noundef align 8 dereferenceable(8) %buf, i32 noundef %ctx) unnamed_addr #0 {
start:
  switch i32 %tag, label %bb1 [
    i32 1, label %bb2
    i32 2, label %bb5
    i32 3, label %bb8
    i32 4, label %bb11
    i32 5, label %bb14
    i32 6, label %bb18
    i32 10, label %bb21
    i32 11, label %bb24
    i32 20, label %bb27
  ]

bb1:                                              ; preds = %start
  %0 = call noundef align 8 ptr @_ZN5prost8encoding10skip_field17hacc8c9149782f1f5E(i8 noundef %wire_type, i32 noundef %tag, ptr noalias noundef align 8 dereferenceable(8) %buf, i32 noundef %ctx)
  br label %bb31

bb2:                                              ; preds = %start
  %value7 = getelementptr inbounds %"substreams_ethereum_core::pb::generated::sf::ethereum::r#type::v2::Block", ptr %self, i32 0, i32 8
  %_7 = call noundef align 8 ptr @_ZN5prost8encoding5int325merge17h9f2172a20e1d2c44E(i8 noundef %wire_type, ptr noalias noundef align 4 dereferenceable(4) %value7, ptr noalias noundef align 8 dereferenceable(8) %buf, i32 poison)
  %1 = call fastcc noundef align 8 ptr @"_ZN4core6result19Result$LT$T$C$E$GT$7map_err17h6d20e451f5c1dd4aE"(ptr noalias noundef align 8 %_7)
  br label %bb31

bb5:                                              ; preds = %start
  %value6 = getelementptr inbounds %"substreams_ethereum_core::pb::generated::sf::ethereum::r#type::v2::Block", ptr %self, i32 0, i32 3
  %_14 = call noundef align 8 ptr @_ZN5prost8encoding5bytes5merge17h0cd668d9bb2160efE(i8 noundef %wire_type, ptr noalias noundef align 8 dereferenceable(24) %value6, ptr noalias noundef align 8 dereferenceable(8) %buf, i32 noundef %ctx)
  %2 = call fastcc noundef align 8 ptr @"_ZN4core6result19Result$LT$T$C$E$GT$7map_err17hef2766a63b1dc8f6E"(ptr noalias noundef align 8 %_14)
  br label %bb31

bb8:                                              ; preds = %start
  %value5 = getelementptr inbounds %"substreams_ethereum_core::pb::generated::sf::ethereum::r#type::v2::Block", ptr %self, i32 0, i32 1
  %_21 = call noundef align 8 ptr @_ZN5prost8encoding6uint645merge17h9ca05691fb964259E(i8 noundef %wire_type, ptr noalias noundef align 8 dereferenceable(8) %value5, ptr noalias noundef align 8 dereferenceable(8) %buf, i32 poison)
  %3 = call fastcc noundef align 8 ptr @"_ZN4core6result19Result$LT$T$C$E$GT$7map_err17h444e2c6969439a06E"(ptr noalias noundef align 8 %_21)
  br label %bb31

bb11:                                             ; preds = %start
  %value4 = getelementptr inbounds %"substreams_ethereum_core::pb::generated::sf::ethereum::r#type::v2::Block", ptr %self, i32 0, i32 2
  %_28 = call noundef align 8 ptr @_ZN5prost8encoding6uint645merge17h9ca05691fb964259E(i8 noundef %wire_type, ptr noalias noundef align 8 dereferenceable(8) %value4, ptr noalias noundef align 8 dereferenceable(8) %buf, i32 poison)
  %4 = call fastcc noundef align 8 ptr @"_ZN4core6result19Result$LT$T$C$E$GT$7map_err17h94b16523e2c5ab0eE"(ptr noalias noundef align 8 %_28)
  br label %bb31

bb14:                                             ; preds = %start
  %_38 = call fastcc noundef align 8 dereferenceable(416) ptr @"_ZN4core6option15Option$LT$T$GT$18get_or_insert_with17h92375fc5359a6060E"(ptr noalias noundef align 8 dereferenceable(416) %self)
  %_35 = call noundef align 8 ptr @_ZN5prost8encoding7message5merge17h0b537d86ea7082acE(i8 noundef %wire_type, ptr noalias noundef align 8 dereferenceable(416) %_38, ptr noalias noundef align 8 dereferenceable(8) %buf, i32 noundef %ctx)
  %5 = call fastcc noundef align 8 ptr @"_ZN4core6result19Result$LT$T$C$E$GT$7map_err17h6da03a3f16a29ceeE"(ptr noalias noundef align 8 %_35)
  br label %bb31

bb18:                                             ; preds = %start
  %value3 = getelementptr inbounds %"substreams_ethereum_core::pb::generated::sf::ethereum::r#type::v2::Block", ptr %self, i32 0, i32 4
  %_44 = call noundef align 8 ptr @_ZN5prost8encoding7message14merge_repeated17h1f1e3a0477b2c358E(i8 noundef %wire_type, ptr noalias noundef align 8 dereferenceable(24) %value3, ptr noalias noundef align 8 dereferenceable(8) %buf, i32 noundef %ctx)
  %6 = call fastcc noundef align 8 ptr @"_ZN4core6result19Result$LT$T$C$E$GT$7map_err17h76274476bf5cc220E"(ptr noalias noundef align 8 %_44)
  br label %bb31

bb21:                                             ; preds = %start
  %value2 = getelementptr inbounds %"substreams_ethereum_core::pb::generated::sf::ethereum::r#type::v2::Block", ptr %self, i32 0, i32 5
  %_51 = call noundef align 8 ptr @_ZN5prost8encoding7message14merge_repeated17hca41f90de9fc1a59E(i8 noundef %wire_type, ptr noalias noundef align 8 dereferenceable(24) %value2, ptr noalias noundef align 8 dereferenceable(8) %buf, i32 noundef %ctx)
  %7 = call fastcc noundef align 8 ptr @"_ZN4core6result19Result$LT$T$C$E$GT$7map_err17h5a78be3ce461316dE"(ptr noalias noundef align 8 %_51)
  br label %bb31

bb24:                                             ; preds = %start
  %value1 = getelementptr inbounds %"substreams_ethereum_core::pb::generated::sf::ethereum::r#type::v2::Block", ptr %self, i32 0, i32 6
  %_58 = call noundef align 8 ptr @_ZN5prost8encoding7message14merge_repeated17h39883b3efaa50a31E(i8 noundef %wire_type, ptr noalias noundef align 8 dereferenceable(24) %value1, ptr noalias noundef align 8 dereferenceable(8) %buf, i32 noundef %ctx)
  %8 = call fastcc noundef align 8 ptr @"_ZN4core6result19Result$LT$T$C$E$GT$7map_err17hdb048232b3471c2aE"(ptr noalias noundef align 8 %_58)
  br label %bb31

bb27:                                             ; preds = %start
  %value = getelementptr inbounds %"substreams_ethereum_core::pb::generated::sf::ethereum::r#type::v2::Block", ptr %self, i32 0, i32 7
  %_65 = call noundef align 8 ptr @_ZN5prost8encoding7message14merge_repeated17h985d0db8e86ad482E(i8 noundef %wire_type, ptr noalias noundef align 8 dereferenceable(24) %value, ptr noalias noundef align 8 dereferenceable(8) %buf, i32 noundef %ctx)
  %9 = call fastcc noundef align 8 ptr @"_ZN4core6result19Result$LT$T$C$E$GT$7map_err17h1dfe4226798bfe11E"(ptr noalias noundef align 8 %_65)
  br label %bb31

bb31:                                             ; preds = %bb27, %bb24, %bb21, %bb18, %bb14, %bb11, %bb8, %bb5, %bb2, %bb1
  %.0 = phi ptr [ %0, %bb1 ], [ %9, %bb27 ], [ %8, %bb24 ], [ %7, %bb21 ], [ %6, %bb18 ], [ %5, %bb14 ], [ %4, %bb11 ], [ %3, %bb8 ], [ %2, %bb5 ], [ %1, %bb2 ]
  ret ptr %.0
}

; Function Attrs: inlinehint optsize uwtable
define internal fastcc noundef align 8 ptr @"_ZN79_$LT$core..result..Result$LT$T$C$E$GT$$u20$as$u20$core..ops..try_trait..Try$GT$6branch17hd6c681b24bf976c1E"(ptr noalias noundef align 8 %0) unnamed_addr #1 {
start:
  %1 = ptrtoint ptr %0 to i64
  %2 = icmp eq i64 %1, 0
  %spec.select = select i1 %2, ptr null, ptr %0
  ret ptr %spec.select
}

; Function Attrs: optsize uwtable
declare noundef align 8 ptr @_ZN5prost8encoding10skip_field17hacc8c9149782f1f5E(i8 noundef, i32 noundef, ptr noalias noundef align 8 dereferenceable(8), i32 noundef) unnamed_addr #0

; Function Attrs: optsize uwtable
define noundef align 8 ptr @_ZN5prost8encoding5int325merge17h9f2172a20e1d2c44E(i8 noundef %wire_type, ptr noalias noundef align 4 dereferenceable(4) %value, ptr noalias noundef align 8 dereferenceable(8) %buf, i32 %_ctx) unnamed_addr #0 {
start:
  %_15 = alloca %"core::result::Result<u64, prost::error::DecodeError>", align 8
  %_14 = alloca %"core::result::Result<u64, prost::error::DecodeError>", align 8
  %_6 = call fastcc noundef align 8 ptr @_ZN5prost8encoding15check_wire_type17h8c85c72d00eff665E(i8 noundef 0, i8 noundef %wire_type)
  %0 = call fastcc noundef align 8 ptr @"_ZN79_$LT$core..result..Result$LT$T$C$E$GT$$u20$as$u20$core..ops..try_trait..Try$GT$6branch17hd6c681b24bf976c1E"(ptr noalias noundef align 8 %_6)
  %1 = ptrtoint ptr %0 to i64
  %2 = icmp eq i64 %1, 0
  br i1 %2, label %bb3, label %bb5

bb3:                                              ; preds = %start
  call void @llvm.lifetime.start.p0(i64 16, ptr %_14)
  call void @llvm.lifetime.start.p0(i64 16, ptr %_15)
  call fastcc void @_ZN5prost8encoding13decode_varint17h383cccc8b21acc4eE(ptr noalias nocapture noundef sret(%"core::result::Result<u64, prost::error::DecodeError>") dereferenceable(16) %_15, ptr noalias noundef align 8 dereferenceable(8) %buf)
  call fastcc void @"_ZN79_$LT$core..result..Result$LT$T$C$E$GT$$u20$as$u20$core..ops..try_trait..Try$GT$6branch17hc213fd47e04fdf31E"(ptr noalias nocapture noundef sret(%"core::result::Result<u64, prost::error::DecodeError>") dereferenceable(16) %_14, ptr noalias nocapture noundef dereferenceable(16) %_15)
  call void @llvm.lifetime.end.p0(i64 16, ptr %_15)
  %_17 = load i64, ptr %_14, align 8, !range !5, !noundef !1
  %switch = icmp ult i64 %_17, 1
  br i1 %switch, label %bb9, label %bb11

bb5:                                              ; preds = %start
  %3 = icmp ne ptr %0, null
  call void @llvm.assume(i1 %3)
  %4 = call fastcc noundef align 8 ptr @"_ZN153_$LT$core..result..Result$LT$T$C$F$GT$$u20$as$u20$core..ops..try_trait..FromResidual$LT$core..result..Result$LT$core..convert..Infallible$C$E$GT$$GT$$GT$13from_residual17h3d04bd5dc0cddb81E"(ptr noalias noundef nonnull align 8 %0)
  br label %bb13

bb13:                                             ; preds = %bb11, %bb9, %bb5
  %.0 = phi ptr [ %7, %bb11 ], [ null, %bb9 ], [ %4, %bb5 ]
  ret ptr %.0

bb9:                                              ; preds = %bb3
  %5 = getelementptr inbounds %"core::ops::control_flow::ControlFlow<core::result::Result<core::convert::Infallible, prost::error::DecodeError>, u64>::Continue", ptr %_14, i32 0, i32 1
  %val = load i64, ptr %5, align 8, !noundef !1
  call void @llvm.lifetime.end.p0(i64 16, ptr %_14)
  %_21 = trunc i64 %val to i32
  store i32 %_21, ptr %value, align 4
  br label %bb13

bb11:                                             ; preds = %bb3
  %6 = getelementptr inbounds %"core::ops::control_flow::ControlFlow<core::result::Result<core::convert::Infallible, prost::error::DecodeError>, (u32, prost::encoding::WireType)>::Break", ptr %_14, i32 0, i32 1
  %residual1 = load ptr, ptr %6, align 8, !nonnull !1, !align !2, !noundef !1
  %7 = call fastcc noundef align 8 ptr @"_ZN153_$LT$core..result..Result$LT$T$C$F$GT$$u20$as$u20$core..ops..try_trait..FromResidual$LT$core..result..Result$LT$core..convert..Infallible$C$E$GT$$GT$$GT$13from_residual17h3d04bd5dc0cddb81E"(ptr noalias noundef nonnull align 8 %residual1)
  call void @llvm.lifetime.end.p0(i64 16, ptr %_14)
  br label %bb13
}

; Function Attrs: inlinehint optsize uwtable
define internal fastcc noundef align 8 ptr @"_ZN4core6result19Result$LT$T$C$E$GT$7map_err17h6d20e451f5c1dd4aE"(ptr noalias noundef align 8 %0) unnamed_addr #1 {
start:
  %1 = ptrtoint ptr %0 to i64
  %2 = icmp eq i64 %1, 0
  br i1 %2, label %bb5, label %bb1

bb1:                                              ; preds = %start
  %3 = icmp ne ptr %0, null
  call void @llvm.assume(i1 %3)
  %_7 = call fastcc noundef nonnull align 8 ptr @"_ZN114_$LT$substreams_ethereum_core..pb..generated..sf..ethereum..type..v2..Block$u20$as$u20$prost..message..Message$GT$11merge_field28_$u7b$$u7b$closure$u7d$$u7d$17h740dc592d855412fE"(ptr noalias noundef nonnull align 8 %0)
  br label %bb5

bb5:                                              ; preds = %bb1, %start
  %.0 = phi ptr [ %_7, %bb1 ], [ null, %start ]
  ret ptr %.0
}

; Function Attrs: optsize uwtable
declare noundef align 8 ptr @_ZN5prost8encoding5bytes5merge17h0cd668d9bb2160efE(i8 noundef, ptr noalias noundef align 8 dereferenceable(24), ptr noalias noundef align 8 dereferenceable(8), i32 noundef) unnamed_addr #0

; Function Attrs: inlinehint optsize uwtable
define internal fastcc noundef align 8 ptr @"_ZN4core6result19Result$LT$T$C$E$GT$7map_err17hef2766a63b1dc8f6E"(ptr noalias noundef align 8 %0) unnamed_addr #1 {
start:
  %1 = ptrtoint ptr %0 to i64
  %2 = icmp eq i64 %1, 0
  br i1 %2, label %bb5, label %bb1

bb1:                                              ; preds = %start
  %3 = icmp ne ptr %0, null
  call void @llvm.assume(i1 %3)
  %_7 = call fastcc noundef nonnull align 8 ptr @"_ZN114_$LT$substreams_ethereum_core..pb..generated..sf..ethereum..type..v2..Block$u20$as$u20$prost..message..Message$GT$11merge_field28_$u7b$$u7b$closure$u7d$$u7d$17hd25e3b2e8ea70774E"(ptr noalias noundef nonnull align 8 %0)
  br label %bb5

bb5:                                              ; preds = %bb1, %start
  %.0 = phi ptr [ %_7, %bb1 ], [ null, %start ]
  ret ptr %.0
}

; Function Attrs: optsize uwtable
define noundef align 8 ptr @_ZN5prost8encoding6uint645merge17h9ca05691fb964259E(i8 noundef %wire_type, ptr noalias noundef align 8 dereferenceable(8) %value, ptr noalias noundef align 8 dereferenceable(8) %buf, i32 %_ctx) unnamed_addr #0 {
start:
  %_15 = alloca %"core::result::Result<u64, prost::error::DecodeError>", align 8
  %_14 = alloca %"core::result::Result<u64, prost::error::DecodeError>", align 8
  %_6 = call fastcc noundef align 8 ptr @_ZN5prost8encoding15check_wire_type17h8c85c72d00eff665E(i8 noundef 0, i8 noundef %wire_type)
  %0 = call fastcc noundef align 8 ptr @"_ZN79_$LT$core..result..Result$LT$T$C$E$GT$$u20$as$u20$core..ops..try_trait..Try$GT$6branch17hd6c681b24bf976c1E"(ptr noalias noundef align 8 %_6)
  %1 = ptrtoint ptr %0 to i64
  %2 = icmp eq i64 %1, 0
  br i1 %2, label %bb3, label %bb5

bb3:                                              ; preds = %start
  call void @llvm.lifetime.start.p0(i64 16, ptr %_14)
  call void @llvm.lifetime.start.p0(i64 16, ptr %_15)
  call fastcc void @_ZN5prost8encoding13decode_varint17h383cccc8b21acc4eE(ptr noalias nocapture noundef sret(%"core::result::Result<u64, prost::error::DecodeError>") dereferenceable(16) %_15, ptr noalias noundef align 8 dereferenceable(8) %buf)
  call fastcc void @"_ZN79_$LT$core..result..Result$LT$T$C$E$GT$$u20$as$u20$core..ops..try_trait..Try$GT$6branch17hc213fd47e04fdf31E"(ptr noalias nocapture noundef sret(%"core::result::Result<u64, prost::error::DecodeError>") dereferenceable(16) %_14, ptr noalias nocapture noundef dereferenceable(16) %_15)
  call void @llvm.lifetime.end.p0(i64 16, ptr %_15)
  %_17 = load i64, ptr %_14, align 8, !range !5, !noundef !1
  %switch = icmp ult i64 %_17, 1
  br i1 %switch, label %bb9, label %bb11

bb5:                                              ; preds = %start
  %3 = icmp ne ptr %0, null
  call void @llvm.assume(i1 %3)
  %4 = call fastcc noundef align 8 ptr @"_ZN153_$LT$core..result..Result$LT$T$C$F$GT$$u20$as$u20$core..ops..try_trait..FromResidual$LT$core..result..Result$LT$core..convert..Infallible$C$E$GT$$GT$$GT$13from_residual17h3d04bd5dc0cddb81E"(ptr noalias noundef nonnull align 8 %0)
  br label %bb13

bb13:                                             ; preds = %bb11, %bb9, %bb5
  %.0 = phi ptr [ %7, %bb11 ], [ null, %bb9 ], [ %4, %bb5 ]
  ret ptr %.0

bb9:                                              ; preds = %bb3
  %5 = getelementptr inbounds %"core::ops::control_flow::ControlFlow<core::result::Result<core::convert::Infallible, prost::error::DecodeError>, u64>::Continue", ptr %_14, i32 0, i32 1
  %val = load i64, ptr %5, align 8, !noundef !1
  call void @llvm.lifetime.end.p0(i64 16, ptr %_14)
  store i64 %val, ptr %value, align 8
  br label %bb13

bb11:                                             ; preds = %bb3
  %6 = getelementptr inbounds %"core::ops::control_flow::ControlFlow<core::result::Result<core::convert::Infallible, prost::error::DecodeError>, (u32, prost::encoding::WireType)>::Break", ptr %_14, i32 0, i32 1
  %residual1 = load ptr, ptr %6, align 8, !nonnull !1, !align !2, !noundef !1
  %7 = call fastcc noundef align 8 ptr @"_ZN153_$LT$core..result..Result$LT$T$C$F$GT$$u20$as$u20$core..ops..try_trait..FromResidual$LT$core..result..Result$LT$core..convert..Infallible$C$E$GT$$GT$$GT$13from_residual17h3d04bd5dc0cddb81E"(ptr noalias noundef nonnull align 8 %residual1)
  call void @llvm.lifetime.end.p0(i64 16, ptr %_14)
  br label %bb13
}

; Function Attrs: inlinehint optsize uwtable
define internal fastcc noundef align 8 ptr @"_ZN4core6result19Result$LT$T$C$E$GT$7map_err17h444e2c6969439a06E"(ptr noalias noundef align 8 %0) unnamed_addr #1 {
start:
  %1 = ptrtoint ptr %0 to i64
  %2 = icmp eq i64 %1, 0
  br i1 %2, label %bb5, label %bb1

bb1:                                              ; preds = %start
  %3 = icmp ne ptr %0, null
  call void @llvm.assume(i1 %3)
  %_7 = call fastcc noundef nonnull align 8 ptr @"_ZN114_$LT$substreams_ethereum_core..pb..generated..sf..ethereum..type..v2..Block$u20$as$u20$prost..message..Message$GT$11merge_field28_$u7b$$u7b$closure$u7d$$u7d$17hf7bc204a96c3d415E"(ptr noalias noundef nonnull align 8 %0)
  br label %bb5

bb5:                                              ; preds = %bb1, %start
  %.0 = phi ptr [ %_7, %bb1 ], [ null, %start ]
  ret ptr %.0
}

; Function Attrs: inlinehint optsize uwtable
define internal fastcc noundef align 8 ptr @"_ZN4core6result19Result$LT$T$C$E$GT$7map_err17h94b16523e2c5ab0eE"(ptr noalias noundef align 8 %0) unnamed_addr #1 {
start:
  %1 = ptrtoint ptr %0 to i64
  %2 = icmp eq i64 %1, 0
  br i1 %2, label %bb5, label %bb1

bb1:                                              ; preds = %start
  %3 = icmp ne ptr %0, null
  call void @llvm.assume(i1 %3)
  %_7 = call fastcc noundef nonnull align 8 ptr @"_ZN114_$LT$substreams_ethereum_core..pb..generated..sf..ethereum..type..v2..Block$u20$as$u20$prost..message..Message$GT$11merge_field28_$u7b$$u7b$closure$u7d$$u7d$17h3c22a3842f3efabbE"(ptr noalias noundef nonnull align 8 %0)
  br label %bb5

bb5:                                              ; preds = %bb1, %start
  %.0 = phi ptr [ %_7, %bb1 ], [ null, %start ]
  ret ptr %.0
}

; Function Attrs: inlinehint optsize uwtable
define internal fastcc noundef align 8 dereferenceable(416) ptr @"_ZN4core6option15Option$LT$T$GT$18get_or_insert_with17h92375fc5359a6060E"(ptr noalias noundef align 8 dereferenceable(416) %self) unnamed_addr #1 personality ptr @rust_eh_personality {
start:
  %_8 = alloca %"substreams_ethereum_core::pb::generated::sf::ethereum::r#type::v2::BlockHeader", align 8
  %_7 = alloca %"core::option::Option<substreams_ethereum_core::pb::generated::sf::ethereum::r#type::v2::BlockHeader>", align 8
  %t = alloca %"core::option::Option<substreams_ethereum_core::pb::generated::sf::ethereum::r#type::v2::BlockHeader>", align 8
  %0 = getelementptr inbounds %"core::option::Option<substreams_ethereum_core::pb::generated::sf::ethereum::r#type::v2::BlockHeader>", ptr %self, i32 0, i32 1
  %1 = load i64, ptr %0, align 8, !range !6, !noundef !1
  %2 = icmp eq i64 %1, 2
  %_4 = select i1 %2, i64 0, i64 1
  br i1 %2, label %bb1, label %bb4

bb1:                                              ; preds = %start
  call void @llvm.lifetime.start.p0(i64 416, ptr %t)
  call void @llvm.lifetime.start.p0(i64 416, ptr %_7)
  call void @llvm.lifetime.start.p0(i64 416, ptr %_8)
  invoke fastcc void @_ZN4core3ops8function6FnOnce9call_once17hca02f5adc35875fdE(ptr noalias nocapture noundef sret(%"substreams_ethereum_core::pb::generated::sf::ethereum::r#type::v2::BlockHeader") dereferenceable(416) %_8)
          to label %bb2 unwind label %cleanup

bb4:                                              ; preds = %bb3, %start
  %3 = load i64, ptr %0, align 8, !range !6, !noundef !1
  %4 = icmp eq i64 %3, 2
  %.self = select i1 %4, ptr null, ptr %self
  %_12 = invoke fastcc noundef align 8 dereferenceable(416) ptr @"_ZN4core6option15Option$LT$T$GT$16unwrap_unchecked17h796826f9e637f50aE"(ptr noalias noundef align 8 dereferenceable_or_null(416) %.self)
          to label %bb6 unwind label %cleanup

cleanup:                                          ; preds = %bb2, %bb4, %bb1
  %5 = landingpad { ptr, i32 }
          cleanup
  %6 = extractvalue { ptr, i32 } %5, 0
  %7 = extractvalue { ptr, i32 } %5, 1
  resume { ptr, i32 } %5

bb2:                                              ; preds = %bb1
  call void @llvm.memcpy.p0.p0.i64(ptr align 8 %_7, ptr align 8 %_8, i64 416, i1 false)
  call void @llvm.lifetime.end.p0(i64 416, ptr %_8)
  invoke fastcc void @_ZN4core3mem7replace17h39f283037dc28057E(ptr noalias nocapture noundef sret(%"core::option::Option<substreams_ethereum_core::pb::generated::sf::ethereum::r#type::v2::BlockHeader>") dereferenceable(416) %t, ptr noalias noundef align 8 dereferenceable(416) %self, ptr noalias nocapture noundef dereferenceable(416) %_7)
          to label %bb3 unwind label %cleanup

bb3:                                              ; preds = %bb2
  call void @llvm.lifetime.end.p0(i64 416, ptr %_7)
  call void @llvm.lifetime.end.p0(i64 416, ptr %t)
  br label %bb4

bb6:                                              ; preds = %bb4
  ret ptr %_12
}

; Function Attrs: optsize uwtable
define noundef align 8 ptr @_ZN5prost8encoding7message5merge17h0b537d86ea7082acE(i8 noundef %wire_type, ptr noalias noundef align 8 dereferenceable(416) %msg, ptr noalias noundef align 8 dereferenceable(8) %buf, i32 noundef %0) unnamed_addr #0 {
start:
  %ctx = alloca i32, align 4
  store i32 %0, ptr %ctx, align 4
  %_6 = call fastcc noundef align 8 ptr @_ZN5prost8encoding15check_wire_type17h8c85c72d00eff665E(i8 noundef 2, i8 noundef %wire_type)
  %1 = call fastcc noundef align 8 ptr @"_ZN79_$LT$core..result..Result$LT$T$C$E$GT$$u20$as$u20$core..ops..try_trait..Try$GT$6branch17hd6c681b24bf976c1E"(ptr noalias noundef align 8 %_6)
  %2 = ptrtoint ptr %1 to i64
  %3 = icmp eq i64 %2, 0
  br i1 %3, label %bb3, label %bb5

bb3:                                              ; preds = %start
  %_14 = call fastcc noundef align 8 ptr @_ZN5prost8encoding13DecodeContext13limit_reached17ha76b8992aab2c5deE(ptr noalias noundef readonly align 4 dereferenceable(4) %ctx)
  %4 = call fastcc noundef align 8 ptr @"_ZN79_$LT$core..result..Result$LT$T$C$E$GT$$u20$as$u20$core..ops..try_trait..Try$GT$6branch17hd6c681b24bf976c1E"(ptr noalias noundef align 8 %_14)
  %5 = ptrtoint ptr %4 to i64
  %6 = icmp eq i64 %5, 0
  br i1 %6, label %bb9, label %bb11

bb5:                                              ; preds = %start
  %7 = icmp ne ptr %1, null
  call void @llvm.assume(i1 %7)
  %8 = call fastcc noundef align 8 ptr @"_ZN153_$LT$core..result..Result$LT$T$C$F$GT$$u20$as$u20$core..ops..try_trait..FromResidual$LT$core..result..Result$LT$core..convert..Infallible$C$E$GT$$GT$$GT$13from_residual17h3d04bd5dc0cddb81E"(ptr noalias noundef nonnull align 8 %1)
  br label %bb15

bb15:                                             ; preds = %bb11, %bb9, %bb5
  %.0 = phi ptr [ %9, %bb9 ], [ %11, %bb11 ], [ %8, %bb5 ]
  ret ptr %.0

bb9:                                              ; preds = %bb3
  %_22 = call fastcc noundef i32 @_ZN5prost8encoding13DecodeContext15enter_recursion17hdb6b03cfe8788f5cE(ptr noalias noundef readonly align 4 dereferenceable(4) %ctx)
  %9 = call noundef align 8 ptr @_ZN5prost8encoding10merge_loop17h6a1473a8a9129800E(ptr noalias noundef align 8 dereferenceable(416) %msg, ptr noalias noundef align 8 dereferenceable(8) %buf, i32 noundef %_22)
  br label %bb15

bb11:                                             ; preds = %bb3
  %10 = icmp ne ptr %4, null
  call void @llvm.assume(i1 %10)
  %11 = call fastcc noundef align 8 ptr @"_ZN153_$LT$core..result..Result$LT$T$C$F$GT$$u20$as$u20$core..ops..try_trait..FromResidual$LT$core..result..Result$LT$core..convert..Infallible$C$E$GT$$GT$$GT$13from_residual17h3d04bd5dc0cddb81E"(ptr noalias noundef nonnull align 8 %4)
  br label %bb15
}

; Function Attrs: inlinehint optsize uwtable
define internal fastcc noundef align 8 ptr @"_ZN4core6result19Result$LT$T$C$E$GT$7map_err17h6da03a3f16a29ceeE"(ptr noalias noundef align 8 %0) unnamed_addr #1 {
start:
  %1 = ptrtoint ptr %0 to i64
  %2 = icmp eq i64 %1, 0
  br i1 %2, label %bb5, label %bb1

bb1:                                              ; preds = %start
  %3 = icmp ne ptr %0, null
  call void @llvm.assume(i1 %3)
  %_7 = call fastcc noundef nonnull align 8 ptr @"_ZN114_$LT$substreams_ethereum_core..pb..generated..sf..ethereum..type..v2..Block$u20$as$u20$prost..message..Message$GT$11merge_field28_$u7b$$u7b$closure$u7d$$u7d$17hc294c41aa23a76a5E"(ptr noalias noundef nonnull align 8 %0)
  br label %bb5

bb5:                                              ; preds = %bb1, %start
  %.0 = phi ptr [ %_7, %bb1 ], [ null, %start ]
  ret ptr %.0
}

; Function Attrs: optsize uwtable
define noundef align 8 ptr @_ZN5prost8encoding7message14merge_repeated17h1f1e3a0477b2c358E(i8 noundef %wire_type, ptr noalias noundef align 8 dereferenceable(24) %messages, ptr noalias noundef align 8 dereferenceable(8) %buf, i32 noundef %ctx) unnamed_addr #0 personality ptr @rust_eh_personality {
start:
  %_27 = alloca %"substreams_ethereum_core::pb::generated::sf::ethereum::r#type::v2::BlockHeader", align 8
  %msg = alloca %"substreams_ethereum_core::pb::generated::sf::ethereum::r#type::v2::BlockHeader", align 8
  %_6 = call fastcc noundef align 8 ptr @_ZN5prost8encoding15check_wire_type17h8c85c72d00eff665E(i8 noundef 2, i8 noundef %wire_type)
  %0 = call fastcc noundef align 8 ptr @"_ZN79_$LT$core..result..Result$LT$T$C$E$GT$$u20$as$u20$core..ops..try_trait..Try$GT$6branch17hd6c681b24bf976c1E"(ptr noalias noundef align 8 %_6)
  %1 = ptrtoint ptr %0 to i64
  %2 = icmp eq i64 %1, 0
  br i1 %2, label %bb3, label %bb5

bb3:                                              ; preds = %start
  call void @llvm.lifetime.start.p0(i64 416, ptr %msg)
  call void @"_ZN119_$LT$substreams_ethereum_core..pb..generated..sf..ethereum..type..v2..BlockHeader$u20$as$u20$core..default..Default$GT$7default17hcc9edbe8ea7a622cE"(ptr noalias nocapture noundef sret(%"substreams_ethereum_core::pb::generated::sf::ethereum::r#type::v2::BlockHeader") dereferenceable(416) %msg)
  %_15 = invoke noundef align 8 ptr @_ZN5prost8encoding7message5merge17h0b537d86ea7082acE(i8 noundef 2, ptr noalias noundef align 8 dereferenceable(416) %msg, ptr noalias noundef align 8 dereferenceable(8) %buf, i32 noundef %ctx)
          to label %bb8 unwind label %cleanup

bb5:                                              ; preds = %start
  %3 = icmp ne ptr %0, null
  call void @llvm.assume(i1 %3)
  %4 = call fastcc noundef align 8 ptr @"_ZN153_$LT$core..result..Result$LT$T$C$F$GT$$u20$as$u20$core..ops..try_trait..FromResidual$LT$core..result..Result$LT$core..convert..Infallible$C$E$GT$$GT$$GT$13from_residual17h3d04bd5dc0cddb81E"(ptr noalias noundef nonnull align 8 %0)
  br label %bb16

bb16:                                             ; preds = %bb14, %bb13, %bb5
  %.0 = phi ptr [ null, %bb14 ], [ %13, %bb13 ], [ %4, %bb5 ]
  ret ptr %.0

cleanup:                                          ; preds = %bb12, %bb10, %bb8, %bb3
  %_28.0 = phi i8 [ 0, %bb10 ], [ 1, %bb12 ], [ 1, %bb8 ], [ 1, %bb3 ]
  %5 = landingpad { ptr, i32 }
          cleanup
  %6 = extractvalue { ptr, i32 } %5, 0
  %7 = extractvalue { ptr, i32 } %5, 1
  %8 = trunc i8 %_28.0 to i1
  br i1 %8, label %bb18, label %bb17

bb8:                                              ; preds = %bb3
  %9 = invoke fastcc noundef align 8 ptr @"_ZN79_$LT$core..result..Result$LT$T$C$E$GT$$u20$as$u20$core..ops..try_trait..Try$GT$6branch17hd6c681b24bf976c1E"(ptr noalias noundef align 8 %_15)
          to label %bb9 unwind label %cleanup

bb9:                                              ; preds = %bb8
  %10 = ptrtoint ptr %9 to i64
  %11 = icmp eq i64 %10, 0
  br i1 %11, label %bb10, label %bb12

bb10:                                             ; preds = %bb9
  call void @llvm.lifetime.start.p0(i64 416, ptr %_27)
  call void @llvm.memcpy.p0.p0.i64(ptr align 8 %_27, ptr align 8 %msg, i64 416, i1 false)
  invoke fastcc void @"_ZN5alloc3vec16Vec$LT$T$C$A$GT$4push17h30337ffce219228bE"(ptr noalias noundef align 8 dereferenceable(24) %messages, ptr noalias nocapture noundef dereferenceable(416) %_27)
          to label %bb14 unwind label %cleanup

bb12:                                             ; preds = %bb9
  %12 = icmp ne ptr %9, null
  call void @llvm.assume(i1 %12)
  %13 = invoke fastcc noundef align 8 ptr @"_ZN153_$LT$core..result..Result$LT$T$C$F$GT$$u20$as$u20$core..ops..try_trait..FromResidual$LT$core..result..Result$LT$core..convert..Infallible$C$E$GT$$GT$$GT$13from_residual17h3d04bd5dc0cddb81E"(ptr noalias noundef nonnull align 8 %9)
          to label %bb13 unwind label %cleanup

bb13:                                             ; preds = %bb12
  call fastcc void @"_ZN4core3ptr97drop_in_place$LT$substreams_ethereum_core..pb..generated..sf..ethereum..type..v2..BlockHeader$GT$17h0cd1522865b88f1dE"(ptr noundef %msg)
  call void @llvm.lifetime.end.p0(i64 416, ptr %msg)
  br label %bb16

bb14:                                             ; preds = %bb10
  call void @llvm.lifetime.end.p0(i64 416, ptr %_27)
  call void @llvm.lifetime.end.p0(i64 416, ptr %msg)
  br label %bb16

bb17:                                             ; preds = %bb18, %cleanup
  resume { ptr, i32 } %5

bb18:                                             ; preds = %cleanup
  invoke fastcc void @"_ZN4core3ptr97drop_in_place$LT$substreams_ethereum_core..pb..generated..sf..ethereum..type..v2..BlockHeader$GT$17h0cd1522865b88f1dE"(ptr noundef %msg) #20
          to label %bb17 unwind label %abort

abort:                                            ; preds = %bb18
  %14 = landingpad { ptr, i32 }
          cleanup
  call void @_ZN4core9panicking19panic_cannot_unwind17h567eff7135bb91deE() #21
  unreachable
}

; Function Attrs: inlinehint optsize uwtable
define internal fastcc noundef align 8 ptr @"_ZN4core6result19Result$LT$T$C$E$GT$7map_err17h76274476bf5cc220E"(ptr noalias noundef align 8 %0) unnamed_addr #1 {
start:
  %1 = ptrtoint ptr %0 to i64
  %2 = icmp eq i64 %1, 0
  br i1 %2, label %bb5, label %bb1

bb1:                                              ; preds = %start
  %3 = icmp ne ptr %0, null
  call void @llvm.assume(i1 %3)
  %_7 = call fastcc noundef nonnull align 8 ptr @"_ZN114_$LT$substreams_ethereum_core..pb..generated..sf..ethereum..type..v2..Block$u20$as$u20$prost..message..Message$GT$11merge_field28_$u7b$$u7b$closure$u7d$$u7d$17h090259c990eb1db7E"(ptr noalias noundef nonnull align 8 %0)
  br label %bb5

bb5:                                              ; preds = %bb1, %start
  %.0 = phi ptr [ %_7, %bb1 ], [ null, %start ]
  ret ptr %.0
}

; Function Attrs: optsize uwtable
define noundef align 8 ptr @_ZN5prost8encoding7message14merge_repeated17hca41f90de9fc1a59E(i8 noundef %wire_type, ptr noalias noundef align 8 dereferenceable(24) %messages, ptr noalias noundef align 8 dereferenceable(8) %buf, i32 noundef %ctx) unnamed_addr #0 personality ptr @rust_eh_personality {
start:
  %_27 = alloca %"substreams_ethereum_core::pb::generated::sf::ethereum::r#type::v2::TransactionTrace", align 8
  %msg = alloca %"substreams_ethereum_core::pb::generated::sf::ethereum::r#type::v2::TransactionTrace", align 8
  %_6 = call fastcc noundef align 8 ptr @_ZN5prost8encoding15check_wire_type17h8c85c72d00eff665E(i8 noundef 2, i8 noundef %wire_type)
  %0 = call fastcc noundef align 8 ptr @"_ZN79_$LT$core..result..Result$LT$T$C$E$GT$$u20$as$u20$core..ops..try_trait..Try$GT$6branch17hd6c681b24bf976c1E"(ptr noalias noundef align 8 %_6)
  %1 = ptrtoint ptr %0 to i64
  %2 = icmp eq i64 %1, 0
  br i1 %2, label %bb3, label %bb5

bb3:                                              ; preds = %start
  call void @llvm.lifetime.start.p0(i64 496, ptr %msg)
  call void @"_ZN124_$LT$substreams_ethereum_core..pb..generated..sf..ethereum..type..v2..TransactionTrace$u20$as$u20$core..default..Default$GT$7default17h11da83ac0dfd9bc0E"(ptr noalias nocapture noundef sret(%"substreams_ethereum_core::pb::generated::sf::ethereum::r#type::v2::TransactionTrace") dereferenceable(496) %msg)
  %_15 = invoke noundef align 8 ptr @_ZN5prost8encoding7message5merge17hfbb60518e5d0c1b6E(i8 noundef 2, ptr noalias noundef align 8 dereferenceable(496) %msg, ptr noalias noundef align 8 dereferenceable(8) %buf, i32 noundef %ctx)
          to label %bb8 unwind label %cleanup

bb5:                                              ; preds = %start
  %3 = icmp ne ptr %0, null
  call void @llvm.assume(i1 %3)
  %4 = call fastcc noundef align 8 ptr @"_ZN153_$LT$core..result..Result$LT$T$C$F$GT$$u20$as$u20$core..ops..try_trait..FromResidual$LT$core..result..Result$LT$core..convert..Infallible$C$E$GT$$GT$$GT$13from_residual17h3d04bd5dc0cddb81E"(ptr noalias noundef nonnull align 8 %0)
  br label %bb16

bb16:                                             ; preds = %bb14, %bb13, %bb5
  %.0 = phi ptr [ null, %bb14 ], [ %13, %bb13 ], [ %4, %bb5 ]
  ret ptr %.0

cleanup:                                          ; preds = %bb12, %bb10, %bb8, %bb3
  %_28.0 = phi i8 [ 0, %bb10 ], [ 1, %bb12 ], [ 1, %bb8 ], [ 1, %bb3 ]
  %5 = landingpad { ptr, i32 }
          cleanup
  %6 = extractvalue { ptr, i32 } %5, 0
  %7 = extractvalue { ptr, i32 } %5, 1
  %8 = trunc i8 %_28.0 to i1
  br i1 %8, label %bb18, label %bb17

bb8:                                              ; preds = %bb3
  %9 = invoke fastcc noundef align 8 ptr @"_ZN79_$LT$core..result..Result$LT$T$C$E$GT$$u20$as$u20$core..ops..try_trait..Try$GT$6branch17hd6c681b24bf976c1E"(ptr noalias noundef align 8 %_15)
          to label %bb9 unwind label %cleanup

bb9:                                              ; preds = %bb8
  %10 = ptrtoint ptr %9 to i64
  %11 = icmp eq i64 %10, 0
  br i1 %11, label %bb10, label %bb12

bb10:                                             ; preds = %bb9
  call void @llvm.lifetime.start.p0(i64 496, ptr %_27)
  call void @llvm.memcpy.p0.p0.i64(ptr align 8 %_27, ptr align 8 %msg, i64 496, i1 false)
  invoke fastcc void @"_ZN5alloc3vec16Vec$LT$T$C$A$GT$4push17h18ac1de67ff9d5bdE"(ptr noalias noundef align 8 dereferenceable(24) %messages, ptr noalias nocapture noundef dereferenceable(496) %_27)
          to label %bb14 unwind label %cleanup

bb12:                                             ; preds = %bb9
  %12 = icmp ne ptr %9, null
  call void @llvm.assume(i1 %12)
  %13 = invoke fastcc noundef align 8 ptr @"_ZN153_$LT$core..result..Result$LT$T$C$F$GT$$u20$as$u20$core..ops..try_trait..FromResidual$LT$core..result..Result$LT$core..convert..Infallible$C$E$GT$$GT$$GT$13from_residual17h3d04bd5dc0cddb81E"(ptr noalias noundef nonnull align 8 %9)
          to label %bb13 unwind label %cleanup

bb13:                                             ; preds = %bb12
  call fastcc void @"_ZN4core3ptr102drop_in_place$LT$substreams_ethereum_core..pb..generated..sf..ethereum..type..v2..TransactionTrace$GT$17h50f0d631b7065eb0E"(ptr noundef %msg)
  call void @llvm.lifetime.end.p0(i64 496, ptr %msg)
  br label %bb16

bb14:                                             ; preds = %bb10
  call void @llvm.lifetime.end.p0(i64 496, ptr %_27)
  call void @llvm.lifetime.end.p0(i64 496, ptr %msg)
  br label %bb16

bb17:                                             ; preds = %bb18, %cleanup
  resume { ptr, i32 } %5

bb18:                                             ; preds = %cleanup
  invoke fastcc void @"_ZN4core3ptr102drop_in_place$LT$substreams_ethereum_core..pb..generated..sf..ethereum..type..v2..TransactionTrace$GT$17h50f0d631b7065eb0E"(ptr noundef %msg) #20
          to label %bb17 unwind label %abort

abort:                                            ; preds = %bb18
  %14 = landingpad { ptr, i32 }
          cleanup
  call void @_ZN4core9panicking19panic_cannot_unwind17h567eff7135bb91deE() #21
  unreachable
}

; Function Attrs: inlinehint optsize uwtable
define internal fastcc noundef align 8 ptr @"_ZN4core6result19Result$LT$T$C$E$GT$7map_err17h5a78be3ce461316dE"(ptr noalias noundef align 8 %0) unnamed_addr #1 {
start:
  %1 = ptrtoint ptr %0 to i64
  %2 = icmp eq i64 %1, 0
  br i1 %2, label %bb5, label %bb1

bb1:                                              ; preds = %start
  %3 = icmp ne ptr %0, null
  call void @llvm.assume(i1 %3)
  %_7 = call fastcc noundef nonnull align 8 ptr @"_ZN114_$LT$substreams_ethereum_core..pb..generated..sf..ethereum..type..v2..Block$u20$as$u20$prost..message..Message$GT$11merge_field28_$u7b$$u7b$closure$u7d$$u7d$17hc1ad1d2b73bf4222E"(ptr noalias noundef nonnull align 8 %0)
  br label %bb5

bb5:                                              ; preds = %bb1, %start
  %.0 = phi ptr [ %_7, %bb1 ], [ null, %start ]
  ret ptr %.0
}

; Function Attrs: optsize uwtable
define noundef align 8 ptr @_ZN5prost8encoding7message14merge_repeated17h39883b3efaa50a31E(i8 noundef %wire_type, ptr noalias noundef align 8 dereferenceable(24) %messages, ptr noalias noundef align 8 dereferenceable(8) %buf, i32 noundef %ctx) unnamed_addr #0 personality ptr @rust_eh_personality {
start:
  %_27 = alloca %"substreams_ethereum_core::pb::generated::sf::ethereum::r#type::v2::BalanceChange", align 8
  %msg = alloca %"substreams_ethereum_core::pb::generated::sf::ethereum::r#type::v2::BalanceChange", align 8
  %_6 = call fastcc noundef align 8 ptr @_ZN5prost8encoding15check_wire_type17h8c85c72d00eff665E(i8 noundef 2, i8 noundef %wire_type)
  %0 = call fastcc noundef align 8 ptr @"_ZN79_$LT$core..result..Result$LT$T$C$E$GT$$u20$as$u20$core..ops..try_trait..Try$GT$6branch17hd6c681b24bf976c1E"(ptr noalias noundef align 8 %_6)
  %1 = ptrtoint ptr %0 to i64
  %2 = icmp eq i64 %1, 0
  br i1 %2, label %bb3, label %bb5

bb3:                                              ; preds = %start
  call void @llvm.lifetime.start.p0(i64 88, ptr %msg)
  call void @"_ZN121_$LT$substreams_ethereum_core..pb..generated..sf..ethereum..type..v2..BalanceChange$u20$as$u20$core..default..Default$GT$7default17hacbc110bebbfd7d5E"(ptr noalias nocapture noundef sret(%"substreams_ethereum_core::pb::generated::sf::ethereum::r#type::v2::BalanceChange") dereferenceable(88) %msg)
  %_15 = invoke noundef align 8 ptr @_ZN5prost8encoding7message5merge17h4ccaa7214abfd743E(i8 noundef 2, ptr noalias noundef align 8 dereferenceable(88) %msg, ptr noalias noundef align 8 dereferenceable(8) %buf, i32 noundef %ctx)
          to label %bb8 unwind label %cleanup

bb5:                                              ; preds = %start
  %3 = icmp ne ptr %0, null
  call void @llvm.assume(i1 %3)
  %4 = call fastcc noundef align 8 ptr @"_ZN153_$LT$core..result..Result$LT$T$C$F$GT$$u20$as$u20$core..ops..try_trait..FromResidual$LT$core..result..Result$LT$core..convert..Infallible$C$E$GT$$GT$$GT$13from_residual17h3d04bd5dc0cddb81E"(ptr noalias noundef nonnull align 8 %0)
  br label %bb16

bb16:                                             ; preds = %bb14, %bb13, %bb5
  %.0 = phi ptr [ null, %bb14 ], [ %13, %bb13 ], [ %4, %bb5 ]
  ret ptr %.0

cleanup:                                          ; preds = %bb12, %bb10, %bb8, %bb3
  %_28.0 = phi i8 [ 0, %bb10 ], [ 1, %bb12 ], [ 1, %bb8 ], [ 1, %bb3 ]
  %5 = landingpad { ptr, i32 }
          cleanup
  %6 = extractvalue { ptr, i32 } %5, 0
  %7 = extractvalue { ptr, i32 } %5, 1
  %8 = trunc i8 %_28.0 to i1
  br i1 %8, label %bb18, label %bb17

bb8:                                              ; preds = %bb3
  %9 = invoke fastcc noundef align 8 ptr @"_ZN79_$LT$core..result..Result$LT$T$C$E$GT$$u20$as$u20$core..ops..try_trait..Try$GT$6branch17hd6c681b24bf976c1E"(ptr noalias noundef align 8 %_15)
          to label %bb9 unwind label %cleanup

bb9:                                              ; preds = %bb8
  %10 = ptrtoint ptr %9 to i64
  %11 = icmp eq i64 %10, 0
  br i1 %11, label %bb10, label %bb12

bb10:                                             ; preds = %bb9
  call void @llvm.lifetime.start.p0(i64 88, ptr %_27)
  call void @llvm.memcpy.p0.p0.i64(ptr align 8 %_27, ptr align 8 %msg, i64 88, i1 false)
  invoke fastcc void @"_ZN5alloc3vec16Vec$LT$T$C$A$GT$4push17hbc346fe98b627b76E"(ptr noalias noundef align 8 dereferenceable(24) %messages, ptr noalias nocapture noundef dereferenceable(88) %_27)
          to label %bb14 unwind label %cleanup

bb12:                                             ; preds = %bb9
  %12 = icmp ne ptr %9, null
  call void @llvm.assume(i1 %12)
  %13 = invoke fastcc noundef align 8 ptr @"_ZN153_$LT$core..result..Result$LT$T$C$F$GT$$u20$as$u20$core..ops..try_trait..FromResidual$LT$core..result..Result$LT$core..convert..Infallible$C$E$GT$$GT$$GT$13from_residual17h3d04bd5dc0cddb81E"(ptr noalias noundef nonnull align 8 %9)
          to label %bb13 unwind label %cleanup

bb13:                                             ; preds = %bb12
  call fastcc void @"_ZN4core3ptr99drop_in_place$LT$substreams_ethereum_core..pb..generated..sf..ethereum..type..v2..BalanceChange$GT$17ha891dae89c7c4d84E"(ptr noundef %msg)
  call void @llvm.lifetime.end.p0(i64 88, ptr %msg)
  br label %bb16

bb14:                                             ; preds = %bb10
  call void @llvm.lifetime.end.p0(i64 88, ptr %_27)
  call void @llvm.lifetime.end.p0(i64 88, ptr %msg)
  br label %bb16

bb17:                                             ; preds = %bb18, %cleanup
  resume { ptr, i32 } %5

bb18:                                             ; preds = %cleanup
  invoke fastcc void @"_ZN4core3ptr99drop_in_place$LT$substreams_ethereum_core..pb..generated..sf..ethereum..type..v2..BalanceChange$GT$17ha891dae89c7c4d84E"(ptr noundef %msg) #20
          to label %bb17 unwind label %abort

abort:                                            ; preds = %bb18
  %14 = landingpad { ptr, i32 }
          cleanup
  call void @_ZN4core9panicking19panic_cannot_unwind17h567eff7135bb91deE() #21
  unreachable
}

; Function Attrs: inlinehint optsize uwtable
define internal fastcc noundef align 8 ptr @"_ZN4core6result19Result$LT$T$C$E$GT$7map_err17hdb048232b3471c2aE"(ptr noalias noundef align 8 %0) unnamed_addr #1 {
start:
  %1 = ptrtoint ptr %0 to i64
  %2 = icmp eq i64 %1, 0
  br i1 %2, label %bb5, label %bb1

bb1:                                              ; preds = %start
  %3 = icmp ne ptr %0, null
  call void @llvm.assume(i1 %3)
  %_7 = call fastcc noundef nonnull align 8 ptr @"_ZN114_$LT$substreams_ethereum_core..pb..generated..sf..ethereum..type..v2..Block$u20$as$u20$prost..message..Message$GT$11merge_field28_$u7b$$u7b$closure$u7d$$u7d$17h0286a4b146b4c513E"(ptr noalias noundef nonnull align 8 %0)
  br label %bb5

bb5:                                              ; preds = %bb1, %start
  %.0 = phi ptr [ %_7, %bb1 ], [ null, %start ]
  ret ptr %.0
}

; Function Attrs: optsize uwtable
define noundef align 8 ptr @_ZN5prost8encoding7message14merge_repeated17h985d0db8e86ad482E(i8 noundef %wire_type, ptr noalias noundef align 8 dereferenceable(24) %messages, ptr noalias noundef align 8 dereferenceable(8) %buf, i32 noundef %ctx) unnamed_addr #0 personality ptr @rust_eh_personality {
start:
  %_27 = alloca %"substreams_ethereum_core::pb::generated::sf::ethereum::r#type::v2::CodeChange", align 8
  %msg = alloca %"substreams_ethereum_core::pb::generated::sf::ethereum::r#type::v2::CodeChange", align 8
  %_6 = call fastcc noundef align 8 ptr @_ZN5prost8encoding15check_wire_type17h8c85c72d00eff665E(i8 noundef 2, i8 noundef %wire_type)
  %0 = call fastcc noundef align 8 ptr @"_ZN79_$LT$core..result..Result$LT$T$C$E$GT$$u20$as$u20$core..ops..try_trait..Try$GT$6branch17hd6c681b24bf976c1E"(ptr noalias noundef align 8 %_6)
  %1 = ptrtoint ptr %0 to i64
  %2 = icmp eq i64 %1, 0
  br i1 %2, label %bb3, label %bb5

bb3:                                              ; preds = %start
  call void @llvm.lifetime.start.p0(i64 128, ptr %msg)
  call void @"_ZN118_$LT$substreams_ethereum_core..pb..generated..sf..ethereum..type..v2..CodeChange$u20$as$u20$core..default..Default$GT$7default17he5b2813fec73caf1E"(ptr noalias nocapture noundef sret(%"substreams_ethereum_core::pb::generated::sf::ethereum::r#type::v2::CodeChange") dereferenceable(128) %msg)
  %_15 = invoke noundef align 8 ptr @_ZN5prost8encoding7message5merge17h3bf77e4a8799aba4E(i8 noundef 2, ptr noalias noundef align 8 dereferenceable(128) %msg, ptr noalias noundef align 8 dereferenceable(8) %buf, i32 noundef %ctx)
          to label %bb8 unwind label %cleanup

bb5:                                              ; preds = %start
  %3 = icmp ne ptr %0, null
  call void @llvm.assume(i1 %3)
  %4 = call fastcc noundef align 8 ptr @"_ZN153_$LT$core..result..Result$LT$T$C$F$GT$$u20$as$u20$core..ops..try_trait..FromResidual$LT$core..result..Result$LT$core..convert..Infallible$C$E$GT$$GT$$GT$13from_residual17h3d04bd5dc0cddb81E"(ptr noalias noundef nonnull align 8 %0)
  br label %bb16

bb16:                                             ; preds = %bb14, %bb13, %bb5
  %.0 = phi ptr [ null, %bb14 ], [ %13, %bb13 ], [ %4, %bb5 ]
  ret ptr %.0

cleanup:                                          ; preds = %bb12, %bb10, %bb8, %bb3
  %_28.0 = phi i8 [ 0, %bb10 ], [ 1, %bb12 ], [ 1, %bb8 ], [ 1, %bb3 ]
  %5 = landingpad { ptr, i32 }
          cleanup
  %6 = extractvalue { ptr, i32 } %5, 0
  %7 = extractvalue { ptr, i32 } %5, 1
  %8 = trunc i8 %_28.0 to i1
  br i1 %8, label %bb18, label %bb17

bb8:                                              ; preds = %bb3
  %9 = invoke fastcc noundef align 8 ptr @"_ZN79_$LT$core..result..Result$LT$T$C$E$GT$$u20$as$u20$core..ops..try_trait..Try$GT$6branch17hd6c681b24bf976c1E"(ptr noalias noundef align 8 %_15)
          to label %bb9 unwind label %cleanup

bb9:                                              ; preds = %bb8
  %10 = ptrtoint ptr %9 to i64
  %11 = icmp eq i64 %10, 0
  br i1 %11, label %bb10, label %bb12

bb10:                                             ; preds = %bb9
  call void @llvm.lifetime.start.p0(i64 128, ptr %_27)
  call void @llvm.memcpy.p0.p0.i64(ptr align 8 %_27, ptr align 8 %msg, i64 128, i1 false)
  invoke fastcc void @"_ZN5alloc3vec16Vec$LT$T$C$A$GT$4push17h861044f038c6dbdaE"(ptr noalias noundef align 8 dereferenceable(24) %messages, ptr noalias nocapture noundef dereferenceable(128) %_27)
          to label %bb14 unwind label %cleanup

bb12:                                             ; preds = %bb9
  %12 = icmp ne ptr %9, null
  call void @llvm.assume(i1 %12)
  %13 = invoke fastcc noundef align 8 ptr @"_ZN153_$LT$core..result..Result$LT$T$C$F$GT$$u20$as$u20$core..ops..try_trait..FromResidual$LT$core..result..Result$LT$core..convert..Infallible$C$E$GT$$GT$$GT$13from_residual17h3d04bd5dc0cddb81E"(ptr noalias noundef nonnull align 8 %9)
          to label %bb13 unwind label %cleanup

bb13:                                             ; preds = %bb12
  call fastcc void @"_ZN4core3ptr96drop_in_place$LT$substreams_ethereum_core..pb..generated..sf..ethereum..type..v2..CodeChange$GT$17h1af33b48a8a6980aE"(ptr noundef %msg)
  call void @llvm.lifetime.end.p0(i64 128, ptr %msg)
  br label %bb16

bb14:                                             ; preds = %bb10
  call void @llvm.lifetime.end.p0(i64 128, ptr %_27)
  call void @llvm.lifetime.end.p0(i64 128, ptr %msg)
  br label %bb16

bb17:                                             ; preds = %bb18, %cleanup
  resume { ptr, i32 } %5

bb18:                                             ; preds = %cleanup
  invoke fastcc void @"_ZN4core3ptr96drop_in_place$LT$substreams_ethereum_core..pb..generated..sf..ethereum..type..v2..CodeChange$GT$17h1af33b48a8a6980aE"(ptr noundef %msg) #20
          to label %bb17 unwind label %abort

abort:                                            ; preds = %bb18
  %14 = landingpad { ptr, i32 }
          cleanup
  call void @_ZN4core9panicking19panic_cannot_unwind17h567eff7135bb91deE() #21
  unreachable
}

; Function Attrs: inlinehint optsize uwtable
define internal fastcc noundef align 8 ptr @"_ZN4core6result19Result$LT$T$C$E$GT$7map_err17h1dfe4226798bfe11E"(ptr noalias noundef align 8 %0) unnamed_addr #1 {
start:
  %1 = ptrtoint ptr %0 to i64
  %2 = icmp eq i64 %1, 0
  br i1 %2, label %bb5, label %bb1

bb1:                                              ; preds = %start
  %3 = icmp ne ptr %0, null
  call void @llvm.assume(i1 %3)
  %_7 = call fastcc noundef nonnull align 8 ptr @"_ZN114_$LT$substreams_ethereum_core..pb..generated..sf..ethereum..type..v2..Block$u20$as$u20$prost..message..Message$GT$11merge_field28_$u7b$$u7b$closure$u7d$$u7d$17h83351b78805f07a9E"(ptr noalias noundef nonnull align 8 %0)
  br label %bb5

bb5:                                              ; preds = %bb1, %start
  %.0 = phi ptr [ %_7, %bb1 ], [ null, %start ]
  ret ptr %.0
}

; Function Attrs: inlinehint optsize uwtable
define internal fastcc noundef nonnull align 8 ptr @"_ZN114_$LT$substreams_ethereum_core..pb..generated..sf..ethereum..type..v2..Block$u20$as$u20$prost..message..Message$GT$11merge_field28_$u7b$$u7b$closure$u7d$$u7d$17h83351b78805f07a9E"(ptr noalias noundef nonnull align 8 %0) unnamed_addr #1 personality ptr @rust_eh_personality {
start:
  %error = alloca ptr, align 8
  store ptr %0, ptr %error, align 8
  invoke void @_ZN5prost5error11DecodeError4push17ha9b7e25a8ca9151aE(ptr noalias noundef align 8 dereferenceable(8) %error, ptr noalias noundef nonnull readonly align 1 @alloc652, i64 noundef 5, ptr noalias noundef nonnull readonly align 1 @alloc645, i64 noundef 12)
          to label %bb1 unwind label %cleanup

cleanup:                                          ; preds = %start
  %1 = landingpad { ptr, i32 }
          cleanup
  %2 = extractvalue { ptr, i32 } %1, 0
  %3 = extractvalue { ptr, i32 } %1, 1
  invoke fastcc void @"_ZN4core3ptr46drop_in_place$LT$prost..error..DecodeError$GT$17h9163871017093394E"(ptr noundef %error) #20
          to label %bb3 unwind label %abort

bb1:                                              ; preds = %start
  %4 = load ptr, ptr %error, align 8, !nonnull !1, !align !2, !noundef !1
  ret ptr %4

abort:                                            ; preds = %cleanup
  %5 = landingpad { ptr, i32 }
          cleanup
  call void @_ZN4core9panicking19panic_cannot_unwind17h567eff7135bb91deE() #21
  unreachable

bb3:                                              ; preds = %cleanup
  resume { ptr, i32 } %1
}

; Function Attrs: optsize uwtable
declare void @_ZN5prost5error11DecodeError4push17ha9b7e25a8ca9151aE(ptr noalias noundef align 8 dereferenceable(8), ptr noalias noundef nonnull readonly align 1, i64 noundef, ptr noalias noundef nonnull readonly align 1, i64 noundef) unnamed_addr #0

; Function Attrs: inlinehint optsize uwtable
define internal fastcc noundef align 8 ptr @_ZN5prost8encoding15check_wire_type17h8c85c72d00eff665E(i8 noundef %0, i8 noundef %1) unnamed_addr #1 {
start:
  %_16 = alloca [2 x { ptr, ptr }], align 8
  %_9 = alloca %"core::fmt::Arguments<'_>", align 8
  %res = alloca %"alloc::string::String", align 8
  %_7 = alloca %"alloc::string::String", align 8
  %actual = alloca i8, align 1
  %expected = alloca i8, align 1
  store i8 %0, ptr %expected, align 1
  store i8 %1, ptr %actual, align 1
  %_3 = call fastcc noundef zeroext i1 @_ZN4core3cmp9PartialEq2ne17h05c001f2f70010daE(ptr noalias noundef readonly align 1 dereferenceable(1) %expected, ptr noalias noundef readonly align 1 dereferenceable(1) %actual)
  br i1 %_3, label %bb2, label %bb9

bb2:                                              ; preds = %start
  call void @llvm.lifetime.start.p0(i64 24, ptr %_7)
  call void @llvm.lifetime.start.p0(i64 24, ptr %res)
  call void @llvm.lifetime.start.p0(i64 48, ptr %_9)
  call void @llvm.lifetime.start.p0(i64 32, ptr %_16)
  %2 = call fastcc ptr @_ZN4core3fmt10ArgumentV19new_debug17he378dad90731d9ceE(ptr noalias noundef readonly align 1 dereferenceable(1) %actual)
  %oldret1 = insertvalue { ptr, ptr } poison, ptr %2, 0
  %_17.0 = extractvalue { ptr, ptr } %oldret1, 0
  %3 = call fastcc ptr @_ZN4core3fmt10ArgumentV19new_debug17he378dad90731d9ceE(ptr noalias noundef readonly align 1 dereferenceable(1) %expected)
  %oldret = insertvalue { ptr, ptr } poison, ptr %3, 0
  %_20.0 = extractvalue { ptr, ptr } %oldret, 0
  store ptr %_17.0, ptr %_16, align 8
  %4 = getelementptr inbounds { ptr, ptr }, ptr %_16, i32 0, i32 1
  store ptr @"_ZN62_$LT$prost..encoding..WireType$u20$as$u20$core..fmt..Debug$GT$3fmt17hcd2eb72a54785788E", ptr %4, align 8
  %5 = getelementptr inbounds [2 x { ptr, ptr }], ptr %_16, i64 0, i64 1
  store ptr %_20.0, ptr %5, align 8
  %6 = getelementptr inbounds { ptr, ptr }, ptr %5, i32 0, i32 1
  store ptr @"_ZN62_$LT$prost..encoding..WireType$u20$as$u20$core..fmt..Debug$GT$3fmt17hcd2eb72a54785788E", ptr %6, align 8
  call fastcc void @_ZN4core3fmt9Arguments6new_v117hee53462b5f1042baE(ptr noalias nocapture noundef sret(%"core::fmt::Arguments<'_>") dereferenceable(48) %_9, ptr noalias noundef nonnull readonly align 8 @alloc93, i64 noundef 3, ptr noalias noundef nonnull readonly align 8 %_16, i64 noundef 2)
  call fastcc void @_ZN5alloc3fmt6format17h5ca71fbc160f0517E(ptr noalias nocapture noundef sret(%"alloc::string::String") dereferenceable(24) %res, ptr noalias nocapture noundef readonly dereferenceable(48) %_9)
  call void @llvm.lifetime.end.p0(i64 48, ptr %_9)
  call void @llvm.lifetime.end.p0(i64 32, ptr %_16)
  call void @llvm.memcpy.p0.p0.i64(ptr align 8 %_7, ptr align 8 %res, i64 24, i1 false)
  call void @llvm.lifetime.end.p0(i64 24, ptr %res)
  %_6 = call noundef nonnull align 8 ptr @_ZN5prost5error11DecodeError3new17h7ece6ac9f491ffe1E(ptr noalias nocapture noundef dereferenceable(24) %_7)
  call void @llvm.lifetime.end.p0(i64 24, ptr %_7)
  br label %bb9

bb9:                                              ; preds = %bb2, %start
  %.0 = phi ptr [ %_6, %bb2 ], [ null, %start ]
  ret ptr %.0
}

; Function Attrs: optsize uwtable
declare void @"_ZN118_$LT$substreams_ethereum_core..pb..generated..sf..ethereum..type..v2..CodeChange$u20$as$u20$core..default..Default$GT$7default17he5b2813fec73caf1E"(ptr noalias nocapture noundef sret(%"substreams_ethereum_core::pb::generated::sf::ethereum::r#type::v2::CodeChange") dereferenceable(128)) unnamed_addr #0

; Function Attrs: optsize uwtable
define noundef align 8 ptr @_ZN5prost8encoding7message5merge17h3bf77e4a8799aba4E(i8 noundef %wire_type, ptr noalias noundef align 8 dereferenceable(128) %msg, ptr noalias noundef align 8 dereferenceable(8) %buf, i32 noundef %0) unnamed_addr #0 {
start:
  %ctx = alloca i32, align 4
  store i32 %0, ptr %ctx, align 4
  %_6 = call fastcc noundef align 8 ptr @_ZN5prost8encoding15check_wire_type17h8c85c72d00eff665E(i8 noundef 2, i8 noundef %wire_type)
  %1 = call fastcc noundef align 8 ptr @"_ZN79_$LT$core..result..Result$LT$T$C$E$GT$$u20$as$u20$core..ops..try_trait..Try$GT$6branch17hd6c681b24bf976c1E"(ptr noalias noundef align 8 %_6)
  %2 = ptrtoint ptr %1 to i64
  %3 = icmp eq i64 %2, 0
  br i1 %3, label %bb3, label %bb5

bb3:                                              ; preds = %start
  %_14 = call fastcc noundef align 8 ptr @_ZN5prost8encoding13DecodeContext13limit_reached17ha76b8992aab2c5deE(ptr noalias noundef readonly align 4 dereferenceable(4) %ctx)
  %4 = call fastcc noundef align 8 ptr @"_ZN79_$LT$core..result..Result$LT$T$C$E$GT$$u20$as$u20$core..ops..try_trait..Try$GT$6branch17hd6c681b24bf976c1E"(ptr noalias noundef align 8 %_14)
  %5 = ptrtoint ptr %4 to i64
  %6 = icmp eq i64 %5, 0
  br i1 %6, label %bb9, label %bb11

bb5:                                              ; preds = %start
  %7 = icmp ne ptr %1, null
  call void @llvm.assume(i1 %7)
  %8 = call fastcc noundef align 8 ptr @"_ZN153_$LT$core..result..Result$LT$T$C$F$GT$$u20$as$u20$core..ops..try_trait..FromResidual$LT$core..result..Result$LT$core..convert..Infallible$C$E$GT$$GT$$GT$13from_residual17h3d04bd5dc0cddb81E"(ptr noalias noundef nonnull align 8 %1)
  br label %bb15

bb15:                                             ; preds = %bb11, %bb9, %bb5
  %.0 = phi ptr [ %9, %bb9 ], [ %11, %bb11 ], [ %8, %bb5 ]
  ret ptr %.0

bb9:                                              ; preds = %bb3
  %_22 = call fastcc noundef i32 @_ZN5prost8encoding13DecodeContext15enter_recursion17hdb6b03cfe8788f5cE(ptr noalias noundef readonly align 4 dereferenceable(4) %ctx)
  %9 = call noundef align 8 ptr @_ZN5prost8encoding10merge_loop17h85731950cc3364b5E(ptr noalias noundef align 8 dereferenceable(128) %msg, ptr noalias noundef align 8 dereferenceable(8) %buf, i32 noundef %_22)
  br label %bb15

bb11:                                             ; preds = %bb3
  %10 = icmp ne ptr %4, null
  call void @llvm.assume(i1 %10)
  %11 = call fastcc noundef align 8 ptr @"_ZN153_$LT$core..result..Result$LT$T$C$F$GT$$u20$as$u20$core..ops..try_trait..FromResidual$LT$core..result..Result$LT$core..convert..Infallible$C$E$GT$$GT$$GT$13from_residual17h3d04bd5dc0cddb81E"(ptr noalias noundef nonnull align 8 %4)
  br label %bb15
}

; Function Attrs: inlinehint optsize uwtable
define internal fastcc void @"_ZN5alloc3vec16Vec$LT$T$C$A$GT$4push17h861044f038c6dbdaE"(ptr noalias noundef align 8 dereferenceable(24) %self, ptr noalias nocapture noundef dereferenceable(128) %value) unnamed_addr #1 personality ptr @rust_eh_personality {
start:
  %src = alloca %"substreams_ethereum_core::pb::generated::sf::ethereum::r#type::v2::CodeChange", align 8
  %0 = getelementptr inbounds %"alloc::vec::Vec<u8>", ptr %self, i32 0, i32 1
  %_4 = load i64, ptr %0, align 8, !noundef !1
  %1 = load i64, ptr %self, align 8, !noundef !1
  %_3 = icmp eq i64 %_4, %1
  br i1 %_3, label %bb1, label %bb3

bb3:                                              ; preds = %bb1, %start
  %2 = getelementptr inbounds { i64, ptr }, ptr %self, i32 0, i32 1
  %self1 = load ptr, ptr %2, align 8, !nonnull !1, !noundef !1
  %3 = ptrtoint ptr %self1 to i64
  %count = load i64, ptr %0, align 8, !noundef !1
  %4 = getelementptr inbounds %"substreams_ethereum_core::pb::generated::sf::ethereum::r#type::v2::CodeChange", ptr %self1, i64 %count
  call void @llvm.lifetime.start.p0(i64 128, ptr %src)
  call void @llvm.memcpy.p0.p0.i64(ptr align 8 %src, ptr align 8 %value, i64 128, i1 false)
  call void @llvm.memcpy.p0.p0.i64(ptr align 8 %4, ptr align 8 %src, i64 128, i1 false)
  call void @llvm.lifetime.end.p0(i64 128, ptr %src)
  %5 = load i64, ptr %0, align 8, !noundef !1
  %6 = add i64 %5, 1
  store i64 %6, ptr %0, align 8
  ret void

bb1:                                              ; preds = %start
  invoke void @"_ZN5alloc7raw_vec19RawVec$LT$T$C$A$GT$16reserve_for_push17h075ef03bce8872f8E"(ptr noalias noundef align 8 dereferenceable(16) %self, i64 noundef %_4)
          to label %bb3 unwind label %cleanup

cleanup:                                          ; preds = %bb1
  %7 = landingpad { ptr, i32 }
          cleanup
  %8 = extractvalue { ptr, i32 } %7, 0
  %9 = extractvalue { ptr, i32 } %7, 1
  invoke fastcc void @"_ZN4core3ptr96drop_in_place$LT$substreams_ethereum_core..pb..generated..sf..ethereum..type..v2..CodeChange$GT$17h1af33b48a8a6980aE"(ptr noundef %value) #20
          to label %bb4 unwind label %abort

bb4:                                              ; preds = %cleanup
  resume { ptr, i32 } %7

abort:                                            ; preds = %cleanup
  %10 = landingpad { ptr, i32 }
          cleanup
  call void @_ZN4core9panicking19panic_cannot_unwind17h567eff7135bb91deE() #21
  unreachable
}

; Function Attrs: optsize uwtable
define internal fastcc void @"_ZN4core3ptr96drop_in_place$LT$substreams_ethereum_core..pb..generated..sf..ethereum..type..v2..CodeChange$GT$17h1af33b48a8a6980aE"(ptr noundef %_1) unnamed_addr #0 personality ptr @rust_eh_personality {
start:
  %0 = getelementptr inbounds %"substreams_ethereum_core::pb::generated::sf::ethereum::r#type::v2::CodeChange", ptr %_1, i32 0, i32 1
  invoke fastcc void @"_ZN4core3ptr46drop_in_place$LT$alloc..vec..Vec$LT$u8$GT$$GT$17h1abcdd8151e8740dE"(ptr noundef %0)
          to label %bb10 unwind label %cleanup

cleanup:                                          ; preds = %start
  %1 = landingpad { ptr, i32 }
          cleanup
  %2 = extractvalue { ptr, i32 } %1, 0
  %3 = extractvalue { ptr, i32 } %1, 1
  %4 = getelementptr inbounds %"substreams_ethereum_core::pb::generated::sf::ethereum::r#type::v2::CodeChange", ptr %_1, i32 0, i32 2
  invoke fastcc void @"_ZN4core3ptr46drop_in_place$LT$alloc..vec..Vec$LT$u8$GT$$GT$17h1abcdd8151e8740dE"(ptr noundef %4) #20
          to label %bb5 unwind label %abort

bb10:                                             ; preds = %start
  %5 = getelementptr inbounds %"substreams_ethereum_core::pb::generated::sf::ethereum::r#type::v2::CodeChange", ptr %_1, i32 0, i32 2
  invoke fastcc void @"_ZN4core3ptr46drop_in_place$LT$alloc..vec..Vec$LT$u8$GT$$GT$17h1abcdd8151e8740dE"(ptr noundef %5)
          to label %bb9 unwind label %cleanup1

abort:                                            ; preds = %bb3, %bb4, %bb5, %cleanup
  %6 = landingpad { ptr, i32 }
          cleanup
  call void @_ZN4core9panicking19panic_cannot_unwind17h567eff7135bb91deE() #21
  unreachable

bb5:                                              ; preds = %cleanup1, %cleanup
  %.sroa.10.0 = phi i32 [ %10, %cleanup1 ], [ %3, %cleanup ]
  %.sroa.0.0 = phi ptr [ %9, %cleanup1 ], [ %2, %cleanup ]
  %7 = getelementptr inbounds %"substreams_ethereum_core::pb::generated::sf::ethereum::r#type::v2::CodeChange", ptr %_1, i32 0, i32 3
  invoke fastcc void @"_ZN4core3ptr46drop_in_place$LT$alloc..vec..Vec$LT$u8$GT$$GT$17h1abcdd8151e8740dE"(ptr noundef %7) #20
          to label %bb4 unwind label %abort

cleanup1:                                         ; preds = %bb10
  %8 = landingpad { ptr, i32 }
          cleanup
  %9 = extractvalue { ptr, i32 } %8, 0
  %10 = extractvalue { ptr, i32 } %8, 1
  br label %bb5

bb9:                                              ; preds = %bb10
  %11 = getelementptr inbounds %"substreams_ethereum_core::pb::generated::sf::ethereum::r#type::v2::CodeChange", ptr %_1, i32 0, i32 3
  invoke fastcc void @"_ZN4core3ptr46drop_in_place$LT$alloc..vec..Vec$LT$u8$GT$$GT$17h1abcdd8151e8740dE"(ptr noundef %11)
          to label %bb8 unwind label %cleanup2

bb4:                                              ; preds = %cleanup2, %bb5
  %.sroa.10.1 = phi i32 [ %15, %cleanup2 ], [ %.sroa.10.0, %bb5 ]
  %.sroa.0.1 = phi ptr [ %14, %cleanup2 ], [ %.sroa.0.0, %bb5 ]
  %12 = getelementptr inbounds %"substreams_ethereum_core::pb::generated::sf::ethereum::r#type::v2::CodeChange", ptr %_1, i32 0, i32 4
  invoke fastcc void @"_ZN4core3ptr46drop_in_place$LT$alloc..vec..Vec$LT$u8$GT$$GT$17h1abcdd8151e8740dE"(ptr noundef %12) #20
          to label %bb3 unwind label %abort

cleanup2:                                         ; preds = %bb9
  %13 = landingpad { ptr, i32 }
          cleanup
  %14 = extractvalue { ptr, i32 } %13, 0
  %15 = extractvalue { ptr, i32 } %13, 1
  br label %bb4

bb8:                                              ; preds = %bb9
  %16 = getelementptr inbounds %"substreams_ethereum_core::pb::generated::sf::ethereum::r#type::v2::CodeChange", ptr %_1, i32 0, i32 4
  invoke fastcc void @"_ZN4core3ptr46drop_in_place$LT$alloc..vec..Vec$LT$u8$GT$$GT$17h1abcdd8151e8740dE"(ptr noundef %16)
          to label %bb7 unwind label %cleanup3

bb3:                                              ; preds = %cleanup3, %bb4
  %.sroa.10.2 = phi i32 [ %20, %cleanup3 ], [ %.sroa.10.1, %bb4 ]
  %.sroa.0.2 = phi ptr [ %19, %cleanup3 ], [ %.sroa.0.1, %bb4 ]
  %17 = getelementptr inbounds %"substreams_ethereum_core::pb::generated::sf::ethereum::r#type::v2::CodeChange", ptr %_1, i32 0, i32 5
  invoke fastcc void @"_ZN4core3ptr46drop_in_place$LT$alloc..vec..Vec$LT$u8$GT$$GT$17h1abcdd8151e8740dE"(ptr noundef %17) #20
          to label %bb1 unwind label %abort

cleanup3:                                         ; preds = %bb8
  %18 = landingpad { ptr, i32 }
          cleanup
  %19 = extractvalue { ptr, i32 } %18, 0
  %20 = extractvalue { ptr, i32 } %18, 1
  br label %bb3

bb7:                                              ; preds = %bb8
  %21 = getelementptr inbounds %"substreams_ethereum_core::pb::generated::sf::ethereum::r#type::v2::CodeChange", ptr %_1, i32 0, i32 5
  call fastcc void @"_ZN4core3ptr46drop_in_place$LT$alloc..vec..Vec$LT$u8$GT$$GT$17h1abcdd8151e8740dE"(ptr noundef %21)
  ret void

bb1:                                              ; preds = %bb3
  %22 = insertvalue { ptr, i32 } undef, ptr %.sroa.0.2, 0
  %23 = insertvalue { ptr, i32 } %22, i32 %.sroa.10.2, 1
  resume { ptr, i32 } %23
}

; Function Attrs: noinline optsize uwtable
define void @"_ZN5alloc7raw_vec19RawVec$LT$T$C$A$GT$16reserve_for_push17h075ef03bce8872f8E"(ptr noalias noundef align 8 dereferenceable(16) %self, i64 noundef %len) unnamed_addr #12 {
start:
  %0 = call { i64, i64 } @"_ZN5alloc7raw_vec19RawVec$LT$T$C$A$GT$14grow_amortized17hd34e1a92a6044a4cE"(ptr noalias noundef align 8 dereferenceable(16) %self, i64 noundef %len, i64 noundef 1)
  %_4.0 = extractvalue { i64, i64 } %0, 0
  %_4.1 = extractvalue { i64, i64 } %0, 1
  call fastcc void @_ZN5alloc7raw_vec14handle_reserve17h3b1ccdbb14730e1bE(i64 %_4.0, i64 noundef %_4.1)
  ret void
}

; Function Attrs: optsize uwtable
define { i64, i64 } @"_ZN5alloc7raw_vec19RawVec$LT$T$C$A$GT$14grow_amortized17hd34e1a92a6044a4cE"(ptr noalias noundef align 8 dereferenceable(16) %self, i64 noundef %len, i64 noundef %additional) unnamed_addr #0 {
start:
  %_30 = alloca %"core::option::Option<(core::ptr::non_null::NonNull<u8>, core::alloc::layout::Layout)>", align 8
  %self3 = alloca %"core::option::Option<prost_types::protobuf::Timestamp>", align 8
  %0 = call fastcc { i64, i64 } @"_ZN4core3num23_$LT$impl$u20$usize$GT$11checked_add17hd66b6bddbeeedb94E"(i64 noundef %len, i64 noundef %additional)
  %.fca.0.extract = extractvalue { i64, i64 } %0, 0
  %.fca.1.extract = extractvalue { i64, i64 } %0, 1
  %switch = icmp ult i64 %.fca.0.extract, 1
  %. = select i1 %switch, i64 0, i64 -9223372036854775807
  %1 = icmp eq i64 %., -9223372036854775807
  %_8.sroa.7.0 = select i1 %1, i64 -9223372036854775807, i64 %.
  %2 = icmp eq i64 %_8.sroa.7.0, -9223372036854775807
  br i1 %2, label %bb6, label %bb17

bb17:                                             ; preds = %bb12, %bb6, %start
  %.sroa.3.0 = phi i64 [ -9223372036854775807, %bb12 ], [ %_8.sroa.7.0, %start ], [ %_27.sroa.10.0, %bb6 ]
  %.sroa.0.0 = phi i64 [ undef, %bb12 ], [ %.fca.1.extract, %start ], [ %_27.sroa.6.0, %bb6 ]
  %3 = insertvalue { i64, i64 } undef, i64 %.sroa.0.0, 0
  %4 = insertvalue { i64, i64 } %3, i64 %.sroa.3.0, 1
  ret { i64, i64 } %4

bb6:                                              ; preds = %start
  %_20 = load i64, ptr %self, align 8, !noundef !1
  %v1 = mul i64 %_20, 2
  %cap = call fastcc noundef i64 @_ZN4core3cmp6max_by17h01dbd9ab70f56748E(i64 noundef %v1, i64 noundef %.fca.1.extract)
  %cap8 = call fastcc noundef i64 @_ZN4core3cmp6max_by17h01dbd9ab70f56748E(i64 noundef 4, i64 noundef %cap)
  %5 = call fastcc { i64, i64 } @_ZN4core5alloc6layout6Layout5array5inner17h8ba9e138eb5fc4efE(i64 noundef 128, i64 noundef %cap8)
  %new_layout.0 = extractvalue { i64, i64 } %5, 0
  %new_layout.1 = extractvalue { i64, i64 } %5, 1
  call void @llvm.lifetime.start.p0(i64 24, ptr %self3)
  call void @llvm.lifetime.start.p0(i64 24, ptr %_30)
  call void @"_ZN5alloc7raw_vec19RawVec$LT$T$C$A$GT$14current_memory17hde8fd27e8ecff52eE"(ptr noalias nocapture noundef sret(%"core::option::Option<(core::ptr::non_null::NonNull<u8>, core::alloc::layout::Layout)>") dereferenceable(24) %_30, ptr noalias noundef readonly align 8 dereferenceable(16) %self)
  call void @_ZN5alloc7raw_vec11finish_grow17h02d555789f83ac5dE(ptr noalias nocapture noundef sret(%"core::option::Option<prost_types::protobuf::Timestamp>") dereferenceable(24) %self3, i64 %new_layout.0, i64 noundef %new_layout.1, ptr noalias nocapture noundef readonly dereferenceable(24) %_30, ptr noalias noundef nonnull align 1 %self)
  call void @llvm.lifetime.end.p0(i64 24, ptr %_30)
  %_73 = load i64, ptr %self3, align 8, !range !5, !noundef !1
  %switch20 = icmp ult i64 %_73, 1
  %6 = getelementptr inbounds %"core::result::Result<core::ptr::non_null::NonNull<[u8]>, alloc::collections::TryReserveError>::Err", ptr %self3, i32 0, i32 1
  %e.09 = load i64, ptr %6, align 8
  %7 = getelementptr inbounds { i64, i64 }, ptr %6, i32 0, i32 1
  %e.110 = load i64, ptr %7, align 8
  %8 = getelementptr inbounds %"core::result::Result<core::ptr::non_null::NonNull<[u8]>, alloc::collections::TryReserveError>::Ok", ptr %self3, i32 0, i32 1
  %v.0 = load ptr, ptr %8, align 8
  %9 = getelementptr inbounds { ptr, i64 }, ptr %8, i32 0, i32 1
  %v.1 = load i64, ptr %9, align 8
  %10 = ptrtoint ptr %v.0 to i64
  %_27.sroa.6.0 = select i1 %switch20, i64 %10, i64 %e.09
  %_27.sroa.10.0 = select i1 %switch20, i64 %v.1, i64 %e.110
  call void @llvm.lifetime.end.p0(i64 24, ptr %self3)
  br i1 %switch20, label %bb12, label %bb17

bb12:                                             ; preds = %bb6
  %11 = inttoptr i64 %_27.sroa.6.0 to ptr
  call void @"_ZN5alloc7raw_vec19RawVec$LT$T$C$A$GT$15set_ptr_and_cap17hb7beb25cbdf82ea0E"(ptr noalias noundef align 8 dereferenceable(16) %self, ptr noundef nonnull %11, i64 poison, i64 noundef %cap8)
  br label %bb17
}

; Function Attrs: inlinehint optsize uwtable
define internal fastcc void @_ZN5alloc7raw_vec14handle_reserve17h3b1ccdbb14730e1bE(i64 %result.0, i64 noundef %result.1) unnamed_addr #1 {
start:
  %0 = call fastcc { i64, i64 } @"_ZN4core6result19Result$LT$T$C$E$GT$7map_err17h75fa825c467d1db7E"(i64 %result.0, i64 noundef %result.1)
  %.fca.0.extract = extractvalue { i64, i64 } %0, 0
  %.fca.1.extract = extractvalue { i64, i64 } %0, 1
  switch i64 %.fca.1.extract, label %bb6 [
    i64 -9223372036854775807, label %bb2
    i64 0, label %bb5
  ]

bb2:                                              ; preds = %start
  ret void

bb5:                                              ; preds = %start
  call void @_ZN5alloc7raw_vec17capacity_overflow17h27a6e7c7cc6ce23fE() #22
  unreachable

bb6:                                              ; preds = %start
  call void @_ZN5alloc5alloc18handle_alloc_error17h1797c796ffea4230E(i64 noundef %.fca.0.extract, i64 noundef %.fca.1.extract) #22
  unreachable
}

; Function Attrs: inlinehint optsize uwtable
define internal fastcc { i64, i64 } @"_ZN4core6result19Result$LT$T$C$E$GT$7map_err17h75fa825c467d1db7E"(i64 %0, i64 noundef %1) unnamed_addr #1 {
start:
  %2 = icmp eq i64 %1, -9223372036854775807
  br i1 %2, label %bb5, label %bb1

bb1:                                              ; preds = %start
  %3 = call fastcc { i64, i64 } @"_ZN5alloc7raw_vec14handle_reserve28_$u7b$$u7b$closure$u7d$$u7d$17h6f5f1d0901d1af49E"(i64 %0, i64 noundef %1)
  %_7.0 = extractvalue { i64, i64 } %3, 0
  %_7.1 = extractvalue { i64, i64 } %3, 1
  br label %bb5

bb5:                                              ; preds = %bb1, %start
  %.sroa.0.0 = phi i64 [ %_7.0, %bb1 ], [ undef, %start ]
  %.sroa.2.0 = phi i64 [ %_7.1, %bb1 ], [ -9223372036854775807, %start ]
  %4 = insertvalue { i64, i64 } undef, i64 %.sroa.0.0, 0
  %5 = insertvalue { i64, i64 } %4, i64 %.sroa.2.0, 1
  ret { i64, i64 } %5
}

; Function Attrs: noreturn optsize uwtable
declare void @_ZN5alloc7raw_vec17capacity_overflow17h27a6e7c7cc6ce23fE() unnamed_addr #13

; Function Attrs: cold noreturn optsize uwtable
declare void @_ZN5alloc5alloc18handle_alloc_error17h1797c796ffea4230E(i64 noundef, i64 noundef) unnamed_addr #14

; Function Attrs: inlinehint optsize uwtable
define internal fastcc { i64, i64 } @"_ZN5alloc7raw_vec14handle_reserve28_$u7b$$u7b$closure$u7d$$u7d$17h6f5f1d0901d1af49E"(i64 %0, i64 noundef %1) unnamed_addr #1 {
start:
  %2 = icmp eq i64 %1, 0
  %. = select i1 %2, i64 0, i64 %1
  %3 = insertvalue { i64, i64 } undef, i64 %0, 0
  %4 = insertvalue { i64, i64 } %3, i64 %., 1
  ret { i64, i64 } %4
}

; Function Attrs: inlinehint optsize uwtable
define internal fastcc { i64, i64 } @"_ZN4core3num23_$LT$impl$u20$usize$GT$11checked_add17hd66b6bddbeeedb94E"(i64 noundef %self, i64 noundef %rhs) unnamed_addr #1 {
start:
  %0 = call { i64, i1 } @llvm.uadd.with.overflow.i64(i64 %self, i64 %rhs)
  %1 = extractvalue { i64, i1 } %0, 0
  %2 = extractvalue { i64, i1 } %0, 1
  %3 = zext i1 %2 to i8
  %. = select i1 %2, i64 0, i64 1
  %4 = insertvalue { i64, i64 } undef, i64 %., 0
  %5 = insertvalue { i64, i64 } %4, i64 %1, 1
  ret { i64, i64 } %5
}

; Function Attrs: inlinehint optsize uwtable
define internal fastcc noundef i64 @_ZN4core3cmp6max_by17h01dbd9ab70f56748E(i64 noundef %0, i64 noundef %1) unnamed_addr #1 personality ptr @rust_eh_personality {
start:
  %v2 = alloca i64, align 8
  %v1 = alloca i64, align 8
  store i64 %0, ptr %v1, align 8
  store i64 %1, ptr %v2, align 8
  %2 = invoke fastcc noundef i8 @_ZN4core3ops8function6FnOnce9call_once17h00485ac6a23b6855E(ptr noalias noundef readonly align 8 dereferenceable(8) %v1, ptr noalias noundef readonly align 8 dereferenceable(8) %v2)
          to label %bb1 unwind label %cleanup, !range !11

cleanup:                                          ; preds = %start
  %3 = landingpad { ptr, i32 }
          cleanup
  %4 = extractvalue { ptr, i32 } %3, 0
  %5 = extractvalue { ptr, i32 } %3, 1
  resume { ptr, i32 } %3

bb1:                                              ; preds = %start
  %.off = add i8 %2, -1
  %switch = icmp ult i8 %.off, 1
  %6 = load i64, ptr %v1, align 8
  %7 = load i64, ptr %v2, align 8
  %.0 = select i1 %switch, i64 %6, i64 %7
  ret i64 %.0
}

; Function Attrs: inlinehint optsize uwtable
define internal fastcc { i64, i64 } @_ZN4core5alloc6layout6Layout5array5inner17h8ba9e138eb5fc4efE(i64 noundef %element_size, i64 noundef %n) unnamed_addr #1 {
start:
  call void @llvm.assume(i1 true)
  call void @llvm.assume(i1 true)
  %_8 = udiv i64 9223372036854775800, %element_size
  %_6 = icmp ugt i64 %n, %_8
  %0 = zext i1 %_6 to i8
  %1 = trunc i8 %0 to i1
  %array_size = mul i64 %element_size, %n
  %spec.select = select i1 %1, i64 0, i64 8
  %spec.select1 = select i1 %1, i64 undef, i64 %array_size
  %2 = insertvalue { i64, i64 } undef, i64 %spec.select1, 0
  %3 = insertvalue { i64, i64 } %2, i64 %spec.select, 1
  ret { i64, i64 } %3
}

; Function Attrs: optsize uwtable
declare void @"_ZN5alloc7raw_vec19RawVec$LT$T$C$A$GT$14current_memory17hde8fd27e8ecff52eE"(ptr noalias nocapture noundef sret(%"core::option::Option<(core::ptr::non_null::NonNull<u8>, core::alloc::layout::Layout)>") dereferenceable(24), ptr noalias noundef readonly align 8 dereferenceable(16)) unnamed_addr #0

; Function Attrs: noinline optsize uwtable
declare void @_ZN5alloc7raw_vec11finish_grow17h02d555789f83ac5dE(ptr noalias nocapture noundef sret(%"core::option::Option<prost_types::protobuf::Timestamp>") dereferenceable(24), i64, i64 noundef, ptr noalias nocapture noundef readonly dereferenceable(24), ptr noalias noundef nonnull align 1) unnamed_addr #12

; Function Attrs: optsize uwtable
define void @"_ZN5alloc7raw_vec19RawVec$LT$T$C$A$GT$15set_ptr_and_cap17hb7beb25cbdf82ea0E"(ptr noalias noundef align 8 dereferenceable(16) %self, ptr noundef nonnull %ptr.0, i64 %ptr.1, i64 noundef %cap) unnamed_addr #0 {
start:
  %0 = getelementptr inbounds { i64, ptr }, ptr %self, i32 0, i32 1
  store ptr %ptr.0, ptr %0, align 8
  store i64 %cap, ptr %self, align 8
  ret void
}

; Function Attrs: inlinehint optsize uwtable
define internal fastcc noundef i8 @_ZN4core3ops8function6FnOnce9call_once17h00485ac6a23b6855E(ptr noalias noundef readonly align 8 dereferenceable(8) %0, ptr noalias noundef readonly align 8 dereferenceable(8) %1) unnamed_addr #1 {
start:
  %2 = call fastcc noundef i8 @"_ZN4core3cmp5impls50_$LT$impl$u20$core..cmp..Ord$u20$for$u20$usize$GT$3cmp17h12bd36552aa2ebb0E"(ptr noalias noundef readonly align 8 dereferenceable(8) %0, ptr noalias noundef readonly align 8 dereferenceable(8) %1), !range !11
  ret i8 %2
}

; Function Attrs: inlinehint optsize uwtable
define internal fastcc noundef i8 @"_ZN4core3cmp5impls50_$LT$impl$u20$core..cmp..Ord$u20$for$u20$usize$GT$3cmp17h12bd36552aa2ebb0E"(ptr noalias noundef readonly align 8 dereferenceable(8) %self, ptr noalias noundef readonly align 8 dereferenceable(8) %other) unnamed_addr #1 {
start:
  %_4 = load i64, ptr %self, align 8, !noundef !1
  %_5 = load i64, ptr %other, align 8, !noundef !1
  %_3 = icmp ult i64 %_4, %_5
  %_6 = icmp eq i64 %_4, %_5
  %. = select i1 %_6, i8 0, i8 1
  %.0 = select i1 %_3, i8 -1, i8 %.
  ret i8 %.0
}

; Function Attrs: nocallback nofree nosync nounwind speculatable willreturn memory(none)
declare { i64, i1 } @llvm.uadd.with.overflow.i64(i64, i64) #15

; Function Attrs: inlinehint optsize uwtable
define internal fastcc noundef align 8 ptr @_ZN5prost8encoding13DecodeContext13limit_reached17ha76b8992aab2c5deE(ptr noalias noundef readonly align 4 dereferenceable(4) %self) unnamed_addr #1 {
start:
  %_2 = load i32, ptr %self, align 4, !noundef !1
  %0 = icmp eq i32 %_2, 0
  br i1 %0, label %bb1, label %bb4

bb1:                                              ; preds = %start
  %_3 = call noundef nonnull align 8 ptr @_ZN5prost5error11DecodeError3new17h9585b8fb62769803E(ptr noalias noundef nonnull readonly align 1 @alloc886, i64 noundef 23)
  br label %bb4

bb4:                                              ; preds = %bb1, %start
  %.0 = phi ptr [ %_3, %bb1 ], [ null, %start ]
  ret ptr %.0
}

; Function Attrs: inlinehint optsize uwtable
define internal fastcc noundef i32 @_ZN5prost8encoding13DecodeContext15enter_recursion17hdb6b03cfe8788f5cE(ptr noalias noundef readonly align 4 dereferenceable(4) %self) unnamed_addr #1 {
start:
  %_3 = load i32, ptr %self, align 4, !noundef !1
  %_2 = sub i32 %_3, 1
  ret i32 %_2
}

; Function Attrs: optsize uwtable
define noundef align 8 ptr @_ZN5prost8encoding10merge_loop17h85731950cc3364b5E(ptr noalias noundef align 8 dereferenceable(128) %value, ptr noalias noundef align 8 dereferenceable(8) %0, i32 noundef %1) unnamed_addr #0 personality ptr @rust_eh_personality {
start:
  %_7 = alloca %"core::result::Result<u64, prost::error::DecodeError>", align 8
  %_6 = alloca %"core::result::Result<u64, prost::error::DecodeError>", align 8
  %merge = alloca %"core::fmt::Error", align 1
  %ctx = alloca i32, align 4
  %buf = alloca ptr, align 8
  store ptr %0, ptr %buf, align 8
  store i32 %1, ptr %ctx, align 4
  call void @llvm.lifetime.start.p0(i64 16, ptr %_6)
  call void @llvm.lifetime.start.p0(i64 16, ptr %_7)
  %_8 = load ptr, ptr %buf, align 8, !nonnull !1, !align !2, !noundef !1
  invoke fastcc void @_ZN5prost8encoding13decode_varint17h383cccc8b21acc4eE(ptr noalias nocapture noundef sret(%"core::result::Result<u64, prost::error::DecodeError>") dereferenceable(16) %_7, ptr noalias noundef align 8 dereferenceable(8) %_8)
          to label %bb1 unwind label %cleanup

cleanup:                                          ; preds = %bb23, %bb19, %bb15, %bb14, %bb13, %bb21, %bb11, %bb8, %bb5, %bb3, %bb1, %start
  %2 = landingpad { ptr, i32 }
          cleanup
  %3 = extractvalue { ptr, i32 } %2, 0
  %4 = extractvalue { ptr, i32 } %2, 1
  resume { ptr, i32 } %2

bb1:                                              ; preds = %start
  invoke fastcc void @"_ZN79_$LT$core..result..Result$LT$T$C$E$GT$$u20$as$u20$core..ops..try_trait..Try$GT$6branch17hc213fd47e04fdf31E"(ptr noalias nocapture noundef sret(%"core::result::Result<u64, prost::error::DecodeError>") dereferenceable(16) %_6, ptr noalias nocapture noundef dereferenceable(16) %_7)
          to label %bb2 unwind label %cleanup

bb2:                                              ; preds = %bb1
  call void @llvm.lifetime.end.p0(i64 16, ptr %_7)
  %_9 = load i64, ptr %_6, align 8, !range !5, !noundef !1
  %switch = icmp ult i64 %_9, 1
  br i1 %switch, label %bb3, label %bb5

bb3:                                              ; preds = %bb2
  %5 = getelementptr inbounds %"core::ops::control_flow::ControlFlow<core::result::Result<core::convert::Infallible, prost::error::DecodeError>, u64>::Continue", ptr %_6, i32 0, i32 1
  %val = load i64, ptr %5, align 8, !noundef !1
  call void @llvm.lifetime.end.p0(i64 16, ptr %_6)
  %remaining = invoke noundef i64 @"_ZN59_$LT$$RF$mut$u20$T$u20$as$u20$bytes..buf..buf_impl..Buf$GT$9remaining17h192f8cbe476827d3E"(ptr noalias noundef readonly align 8 dereferenceable(8) %buf)
          to label %bb7 unwind label %cleanup

bb5:                                              ; preds = %bb2
  %6 = getelementptr inbounds %"core::ops::control_flow::ControlFlow<core::result::Result<core::convert::Infallible, prost::error::DecodeError>, (u32, prost::encoding::WireType)>::Break", ptr %_6, i32 0, i32 1
  %residual = load ptr, ptr %6, align 8, !nonnull !1, !align !2, !noundef !1
  %7 = invoke fastcc noundef align 8 ptr @"_ZN153_$LT$core..result..Result$LT$T$C$F$GT$$u20$as$u20$core..ops..try_trait..FromResidual$LT$core..result..Result$LT$core..convert..Infallible$C$E$GT$$GT$$GT$13from_residual17h3d04bd5dc0cddb81E"(ptr noalias noundef nonnull align 8 %residual)
          to label %bb6 unwind label %cleanup

bb6:                                              ; preds = %bb5
  call void @llvm.lifetime.end.p0(i64 16, ptr %_6)
  br label %bb29

bb7:                                              ; preds = %bb3
  %_15 = icmp ugt i64 %val, %remaining
  br i1 %_15, label %bb8, label %bb10

bb10:                                             ; preds = %bb7
  %limit = sub i64 %remaining, %val
  br label %bb11

bb8:                                              ; preds = %bb7
  %_19 = invoke noundef nonnull align 8 ptr @_ZN5prost5error11DecodeError3new17h9585b8fb62769803E(ptr noalias noundef nonnull readonly align 1 @alloc907, i64 noundef 16)
          to label %bb29 unwind label %cleanup

bb11:                                             ; preds = %bb16, %bb10
  %_25 = invoke noundef i64 @"_ZN59_$LT$$RF$mut$u20$T$u20$as$u20$bytes..buf..buf_impl..Buf$GT$9remaining17h192f8cbe476827d3E"(ptr noalias noundef readonly align 8 dereferenceable(8) %buf)
          to label %bb12 unwind label %cleanup

bb12:                                             ; preds = %bb11
  %_24 = icmp ugt i64 %_25, %limit
  br i1 %_24, label %bb13, label %bb21

bb21:                                             ; preds = %bb12
  %_41 = invoke noundef i64 @"_ZN59_$LT$$RF$mut$u20$T$u20$as$u20$bytes..buf..buf_impl..Buf$GT$9remaining17h192f8cbe476827d3E"(ptr noalias noundef readonly align 8 dereferenceable(8) %buf)
          to label %bb22 unwind label %cleanup

bb13:                                             ; preds = %bb12
  %_33 = load ptr, ptr %buf, align 8, !nonnull !1, !align !2, !noundef !1
  %_34 = invoke fastcc noundef i32 @"_ZN69_$LT$prost..encoding..DecodeContext$u20$as$u20$core..clone..Clone$GT$5clone17h6882d0dc2133d2e4E"(ptr noalias noundef readonly align 4 dereferenceable(4) %ctx)
          to label %bb14 unwind label %cleanup

bb14:                                             ; preds = %bb13
  %_29 = invoke fastcc noundef align 8 ptr @"_ZN5prost8encoding7message5merge28_$u7b$$u7b$closure$u7d$$u7d$17h41495a7b50cb7b86E"(ptr noalias noundef align 8 dereferenceable(128) %value, ptr noalias noundef align 8 dereferenceable(8) %_33, i32 noundef %_34)
          to label %bb15 unwind label %cleanup

bb15:                                             ; preds = %bb14
  %8 = invoke fastcc noundef align 8 ptr @"_ZN79_$LT$core..result..Result$LT$T$C$E$GT$$u20$as$u20$core..ops..try_trait..Try$GT$6branch17hd6c681b24bf976c1E"(ptr noalias noundef align 8 %_29)
          to label %bb16 unwind label %cleanup

bb16:                                             ; preds = %bb15
  %9 = ptrtoint ptr %8 to i64
  %10 = icmp eq i64 %9, 0
  br i1 %10, label %bb11, label %bb19

bb19:                                             ; preds = %bb16
  %11 = icmp ne ptr %8, null
  call void @llvm.assume(i1 %11)
  %12 = invoke fastcc noundef align 8 ptr @"_ZN153_$LT$core..result..Result$LT$T$C$F$GT$$u20$as$u20$core..ops..try_trait..FromResidual$LT$core..result..Result$LT$core..convert..Infallible$C$E$GT$$GT$$GT$13from_residual17h3d04bd5dc0cddb81E"(ptr noalias noundef nonnull align 8 %8)
